---
triple:          'arm64-apple-darwin'
binary-path:     '/Users/pakorn/dev/2110104-COMPROG/Vector/06_Vector_33'
relocations:
  - { offsetInCU: 0x5855, offset: 0x5855, size: 0x8, addend: 0x0, symName: __ZNSt3__111__introsortINS_17_ClassicAlgPolicyERNS_6__lessINS_5tupleIJdjNS_12basic_stringIcNS_11char_traitsIcEENS_9allocatorIcEEEEEEESA_EEPSA_EEvT1_SE_T0_NS_15iterator_traitsISE_E15difference_typeE, symObjAddr: 0x4070, symBinAddr: 0x100008528, symSize: 0x6D0 }
  - { offsetInCU: 0x59B0, offset: 0x59B0, size: 0x8, addend: 0x0, symName: __ZNSt3__118__insertion_sort_3B7v160006INS_17_ClassicAlgPolicyERNS_6__lessINS_5tupleIJdjNS_12basic_stringIcNS_11char_traitsIcEENS_9allocatorIcEEEEEEESA_EEPSA_EEvT1_SE_T0_, symObjAddr: 0x48A8, symBinAddr: 0x100008D60, symSize: 0x188 }
  - { offsetInCU: 0x5A73, offset: 0x5A73, size: 0x8, addend: 0x0, symName: __ZNSt3__111__sift_downB7v160006INS_17_ClassicAlgPolicyERNS_6__lessINS_5tupleIJdjNS_12basic_stringIcNS_11char_traitsIcEENS_9allocatorIcEEEEEEESA_EEPSA_EEvT1_OT0_NS_15iterator_traitsISE_E15difference_typeESE_, symObjAddr: 0x6264, symBinAddr: 0x10000A71C, symSize: 0x26C }
  - { offsetInCU: 0x5B20, offset: 0x5B20, size: 0x8, addend: 0x0, symName: __ZNSt3__117__floyd_sift_downB7v160006INS_17_ClassicAlgPolicyERNS_6__lessINS_5tupleIJdjNS_12basic_stringIcNS_11char_traitsIcEENS_9allocatorIcEEEEEEESA_EEPSA_EET1_SE_OT0_NS_15iterator_traitsISE_E15difference_typeE, symObjAddr: 0x6698, symBinAddr: 0x10000AB50, symSize: 0x108 }
  - { offsetInCU: 0x5BB8, offset: 0x5BB8, size: 0x8, addend: 0x0, symName: __ZNSt3__127__insertion_sort_incompleteIRNS_6__lessINS_5tupleIJdjNS_12basic_stringIcNS_11char_traitsIcEENS_9allocatorIcEEEEEEES9_EEPS9_EEbT0_SD_T_, symObjAddr: 0x4C5C, symBinAddr: 0x100009114, symSize: 0x378 }
  - { offsetInCU: 0x5CAF, offset: 0x5CAF, size: 0x8, addend: 0x0, symName: __ZNSt3__124__put_character_sequenceB7v160006IcNS_11char_traitsIcEEEERNS_13basic_ostreamIT_T0_EES7_PKS4_m, symObjAddr: 0x6AE4, symBinAddr: 0x10000AF9C, symSize: 0x1EC }
  - { offsetInCU: 0x755C, offset: 0x755C, size: 0x8, addend: 0x0, symName: __ZNSt3__1rsB7v160006IcNS_11char_traitsIcEENS_9allocatorIcEEEERNS_13basic_istreamIT_T0_EES9_RNS_12basic_stringIS6_S7_T1_EE, symObjAddr: 0x5F8, symBinAddr: 0x100004AB0, symSize: 0x31C }
  - { offsetInCU: 0x762B, offset: 0x762B, size: 0x8, addend: 0x0, symName: __ZNSt3__1eqB7v160006IcNS_11char_traitsIcEENS_9allocatorIcEEEEbRKNS_12basic_stringIT_T0_T1_EEPKS6_, symObjAddr: 0x940, symBinAddr: 0x100004DF8, symSize: 0xAC }
  - { offsetInCU: 0x7692, offset: 0x7692, size: 0x8, addend: 0x0, symName: __ZNSt3__110make_tupleB7v160006IJRjS1_RNS_12basic_stringIcNS_11char_traitsIcEENS_9allocatorIcEEEEEEENS_5tupleIJDpNS_18__unwrap_ref_decayIT_E4typeEEEEDpOSB_, symObjAddr: 0xA58, symBinAddr: 0x100004F10, symSize: 0x48 }
  - { offsetInCU: 0x7A15, offset: 0x7A15, size: 0x8, addend: 0x0, symName: __ZNSt3__1neB7v160006IPNS_5tupleIJdjNS_12basic_stringIcNS_11char_traitsIcEENS_9allocatorIcEEEEEEEEEbRKNS_11__wrap_iterIT_EESE_, symObjAddr: 0xB8C, symBinAddr: 0x100005044, symSize: 0x34 }
  - { offsetInCU: 0x7A58, offset: 0x7A58, size: 0x8, addend: 0x0, symName: __ZNSt3__13getB7v160006ILm0EJdjNS_12basic_stringIcNS_11char_traitsIcEENS_9allocatorIcEEEEEEERNS_13tuple_elementIXT_ENS_5tupleIJDpT0_EEEE4typeERSB_, symObjAddr: 0xBD8, symBinAddr: 0x100005090, symSize: 0x24 }
  - { offsetInCU: 0x7AA5, offset: 0x7AA5, size: 0x8, addend: 0x0, symName: __ZNSt3__14endlB7v160006IcNS_11char_traitsIcEEEERNS_13basic_ostreamIT_T0_EES7_, symObjAddr: 0xC28, symBinAddr: 0x1000050E0, symSize: 0x58 }
  - { offsetInCU: 0x7AE5, offset: 0x7AE5, size: 0x8, addend: 0x0, symName: __ZNSt3__14sortB7v160006INS_11__wrap_iterIPNS_5tupleIJdjNS_12basic_stringIcNS_11char_traitsIcEENS_9allocatorIcEEEEEEEEEEEvT_SC_, symObjAddr: 0xCA0, symBinAddr: 0x100005158, symSize: 0x3C }
  - { offsetInCU: 0x7B27, offset: 0x7B27, size: 0x8, addend: 0x0, symName: __ZNSt3__13getB7v160006ILm1EJdjNS_12basic_stringIcNS_11char_traitsIcEENS_9allocatorIcEEEEEEERNS_13tuple_elementIXT_ENS_5tupleIJDpT0_EEEE4typeERSB_, symObjAddr: 0xCDC, symBinAddr: 0x100005194, symSize: 0x28 }
  - { offsetInCU: 0x7B74, offset: 0x7B74, size: 0x8, addend: 0x0, symName: __ZNSt3__1lsB7v160006INS_11char_traitsIcEEEERNS_13basic_ostreamIcT_EES6_PKc, symObjAddr: 0xD30, symBinAddr: 0x1000051E8, symSize: 0x48 }
  - { offsetInCU: 0x7BBA, offset: 0x7BBA, size: 0x8, addend: 0x0, symName: __ZNSt3__1lsB7v160006IcNS_11char_traitsIcEENS_9allocatorIcEEEERNS_13basic_ostreamIT_T0_EES9_RKNS_12basic_stringIS6_S7_T1_EE, symObjAddr: 0xD78, symBinAddr: 0x100005230, symSize: 0x4C }
  - { offsetInCU: 0x7C12, offset: 0x7C12, size: 0x8, addend: 0x0, symName: __ZNSt3__13getB7v160006ILm2EJdjNS_12basic_stringIcNS_11char_traitsIcEENS_9allocatorIcEEEEEEERNS_13tuple_elementIXT_ENS_5tupleIJDpT0_EEEE4typeERSB_, symObjAddr: 0xDC4, symBinAddr: 0x10000527C, symSize: 0x28 }
  - { offsetInCU: 0x7C98, offset: 0x7C98, size: 0x8, addend: 0x0, symName: __ZNSt3__13getB7v160006ILm0EJjjNS_12basic_stringIcNS_11char_traitsIcEENS_9allocatorIcEEEEEEERNS_13tuple_elementIXT_ENS_5tupleIJDpT0_EEEE4typeERSB_, symObjAddr: 0x1094, symBinAddr: 0x10000554C, symSize: 0x24 }
  - { offsetInCU: 0x7CE4, offset: 0x7CE4, size: 0x8, addend: 0x0, symName: __ZNSt3__13getB7v160006ILm1EJjjNS_12basic_stringIcNS_11char_traitsIcEENS_9allocatorIcEEEEEEERNS_13tuple_elementIXT_ENS_5tupleIJDpT0_EEEE4typeERSB_, symObjAddr: 0x10E4, symBinAddr: 0x10000559C, symSize: 0x28 }
  - { offsetInCU: 0x7D30, offset: 0x7D30, size: 0x8, addend: 0x0, symName: __ZNSt3__13getB7v160006ILm2EJjjNS_12basic_stringIcNS_11char_traitsIcEENS_9allocatorIcEEEEEEERNS_13tuple_elementIXT_ENS_5tupleIJDpT0_EEEE4typeERSB_, symObjAddr: 0x1130, symBinAddr: 0x1000055E8, symSize: 0x28 }
  - { offsetInCU: 0x7D7C, offset: 0x7D7C, size: 0x8, addend: 0x0, symName: __ZNSt3__119__debug_db_insert_cB7v160006INS_12basic_stringIcNS_11char_traitsIcEENS_9allocatorIcEEEEEEvPT_, symObjAddr: 0x12D0, symBinAddr: 0x100005788, symSize: 0x10 }
  - { offsetInCU: 0x7DAD, offset: 0x7DAD, size: 0x8, addend: 0x0, symName: __ZNSt3__115__debug_db_swapB7v160006INS_12basic_stringIcNS_11char_traitsIcEENS_9allocatorIcEEEEEEvPT_S8_, symObjAddr: 0x1318, symBinAddr: 0x1000057D0, symSize: 0x14 }
  - { offsetInCU: 0x7DEC, offset: 0x7DEC, size: 0x8, addend: 0x0, symName: __ZNSt3__1eqB7v160006IPNS_5tupleIJdjNS_12basic_stringIcNS_11char_traitsIcEENS_9allocatorIcEEEEEEEEEbRKNS_11__wrap_iterIT_EESE_, symObjAddr: 0x14D8, symBinAddr: 0x100005990, symSize: 0x48 }
  - { offsetInCU: 0x7E2F, offset: 0x7E2F, size: 0x8, addend: 0x0, symName: __ZNSt3__119__debug_db_insert_cB7v160006INS_6vectorINS_5tupleIJdjNS_12basic_stringIcNS_11char_traitsIcEENS_9allocatorIcEEEEEEENS6_IS9_EEEEEEvPT_, symObjAddr: 0x15E0, symBinAddr: 0x100005A98, symSize: 0x10 }
  - { offsetInCU: 0x7E60, offset: 0x7E60, size: 0x8, addend: 0x0, symName: __ZNSt3__118__debug_db_erase_cB7v160006INS_6vectorINS_5tupleIJdjNS_12basic_stringIcNS_11char_traitsIcEENS_9allocatorIcEEEEEEENS6_IS9_EEEEEEvPT_, symObjAddr: 0x18C0, symBinAddr: 0x100005D78, symSize: 0x10 }
  - { offsetInCU: 0x7E91, offset: 0x7E91, size: 0x8, addend: 0x0, symName: __ZNSt3__112__to_addressB7v160006INS_5tupleIJdjNS_12basic_stringIcNS_11char_traitsIcEENS_9allocatorIcEEEEEEEEEPT_SA_, symObjAddr: 0x1A04, symBinAddr: 0x100005EBC, symSize: 0x14 }
  - { offsetInCU: 0x7EC6, offset: 0x7EC6, size: 0x8, addend: 0x0, symName: __ZNSt3__119__libcpp_deallocateB7v160006EPvmm, symObjAddr: 0x1B3C, symBinAddr: 0x100005FF4, symSize: 0x30 }
  - { offsetInCU: 0x7F0E, offset: 0x7F0E, size: 0x8, addend: 0x0, symName: __ZNSt3__127__do_deallocate_handle_sizeB7v160006IJEEEvPvmDpT_, symObjAddr: 0x1B6C, symBinAddr: 0x100006024, symSize: 0x28 }
  - { offsetInCU: 0x7F4C, offset: 0x7F4C, size: 0x8, addend: 0x0, symName: __ZNSt3__124__libcpp_operator_deleteB7v160006IJPvEEEvDpT_, symObjAddr: 0x1B94, symBinAddr: 0x10000604C, symSize: 0x24 }
  - { offsetInCU: 0x8717, offset: 0x8717, size: 0x8, addend: 0x0, symName: __ZNSt3__19use_facetB7v160006INS_5ctypeIcEEEERKT_RKNS_6localeE, symObjAddr: 0x1F10, symBinAddr: 0x1000063C8, symSize: 0x2C }
  - { offsetInCU: 0x8AF7, offset: 0x8AF7, size: 0x8, addend: 0x0, symName: __ZNSt3__125__debug_db_invalidate_allB7v160006INS_12basic_stringIcNS_11char_traitsIcEENS_9allocatorIcEEEEEEvPT_, symObjAddr: 0x21EC, symBinAddr: 0x1000066A4, symSize: 0x10 }
  - { offsetInCU: 0x8D5D, offset: 0x8D5D, size: 0x8, addend: 0x0, symName: __ZNSt3__118__constexpr_strlenB7v160006EPKc, symObjAddr: 0x2560, symBinAddr: 0x100006A18, symSize: 0x24 }
  - { offsetInCU: 0x8D89, offset: 0x8D89, size: 0x8, addend: 0x0, symName: __ZNSt3__13maxB7v160006ImEERKT_S3_S3_, symObjAddr: 0x2CBC, symBinAddr: 0x100007174, symSize: 0x2C }
  - { offsetInCU: 0x8DCC, offset: 0x8DCC, size: 0x8, addend: 0x0, symName: __ZNSt3__13minB7v160006ImEERKT_S3_S3_, symObjAddr: 0x2CE8, symBinAddr: 0x1000071A0, symSize: 0x2C }
  - { offsetInCU: 0x8E0F, offset: 0x8E0F, size: 0x8, addend: 0x0, symName: __ZNSt3__13minB7v160006ImNS_6__lessImmEEEERKT_S5_S5_T0_, symObjAddr: 0x2D60, symBinAddr: 0x100007218, symSize: 0x54 }
  - { offsetInCU: 0x8EA4, offset: 0x8EA4, size: 0x8, addend: 0x0, symName: __ZNSt3__120__throw_length_errorB7v160006EPKc, symObjAddr: 0x2E38, symBinAddr: 0x1000072F0, symSize: 0x64 }
  - { offsetInCU: 0x8ECC, offset: 0x8ECC, size: 0x8, addend: 0x0, symName: __ZNSt3__13maxB7v160006ImNS_6__lessImmEEEERKT_S5_S5_T0_, symObjAddr: 0x2F1C, symBinAddr: 0x1000073D4, symSize: 0x54 }
  - { offsetInCU: 0x8F26, offset: 0x8F26, size: 0x8, addend: 0x0, symName: __ZNSt3__119__allocate_at_leastB7v160006INS_9allocatorINS_5tupleIJdjNS_12basic_stringIcNS_11char_traitsIcEENS1_IcEEEEEEEEEEENS_19__allocation_resultINS_16allocator_traitsIT_E7pointerEEERSC_m, symObjAddr: 0x308C, symBinAddr: 0x100007544, symSize: 0x40 }
  - { offsetInCU: 0x8F69, offset: 0x8F69, size: 0x8, addend: 0x0, symName: __ZNSt3__117__libcpp_allocateB7v160006Emm, symObjAddr: 0x3214, symBinAddr: 0x1000076CC, symSize: 0x28 }
  - { offsetInCU: 0x8FA6, offset: 0x8FA6, size: 0x8, addend: 0x0, symName: __ZNSt3__121__libcpp_operator_newB7v160006IJmEEEPvDpT_, symObjAddr: 0x323C, symBinAddr: 0x1000076F4, symSize: 0x24 }
  - { offsetInCU: 0x8FDF, offset: 0x8FDF, size: 0x8, addend: 0x0, symName: __ZNSt3__142__uninitialized_allocator_move_if_noexceptB7v160006INS_9allocatorINS_5tupleIJdjNS_12basic_stringIcNS_11char_traitsIcEENS1_IcEEEEEEEEENS_16reverse_iteratorIPS8_EESC_SC_EET2_RT_T0_T1_SD_, symObjAddr: 0x32C4, symBinAddr: 0x10000777C, symSize: 0x12C }
  - { offsetInCU: 0x907F, offset: 0x907F, size: 0x8, addend: 0x0, symName: __ZNSt3__14swapB7v160006IPNS_5tupleIJdjNS_12basic_stringIcNS_11char_traitsIcEENS_9allocatorIcEEEEEEEEENS_9enable_ifIXaasr21is_move_constructibleIT_EE5valuesr18is_move_assignableISB_EE5valueEvE4typeERSB_SE_, symObjAddr: 0x343C, symBinAddr: 0x1000078F4, symSize: 0x3C }
  - { offsetInCU: 0x90D0, offset: 0x90D0, size: 0x8, addend: 0x0, symName: __ZNSt3__125__debug_db_invalidate_allB7v160006INS_6vectorINS_5tupleIJdjNS_12basic_stringIcNS_11char_traitsIcEENS_9allocatorIcEEEEEEENS6_IS9_EEEEEEvPT_, symObjAddr: 0x3540, symBinAddr: 0x1000079F8, symSize: 0x10 }
  - { offsetInCU: 0x9101, offset: 0x9101, size: 0x8, addend: 0x0, symName: __ZNSt3__122__make_exception_guardB7v160006INS_29_AllocatorDestroyRangeReverseINS_9allocatorINS_5tupleIJdjNS_12basic_stringIcNS_11char_traitsIcEENS2_IcEEEEEEEEENS_16reverse_iteratorIPS9_EEEEEENS_28__exception_guard_exceptionsIT_EESG_, symObjAddr: 0x3550, symBinAddr: 0x100007A08, symSize: 0x4C }
  - { offsetInCU: 0x9137, offset: 0x9137, size: 0x8, addend: 0x0, symName: __ZNSt3__1neB7v160006IPNS_5tupleIJdjNS_12basic_stringIcNS_11char_traitsIcEENS_9allocatorIcEEEEEEES9_EEbRKNS_16reverse_iteratorIT_EERKNSA_IT0_EE, symObjAddr: 0x35E0, symBinAddr: 0x100007A98, symSize: 0x48 }
  - { offsetInCU: 0x9183, offset: 0x9183, size: 0x8, addend: 0x0, symName: __ZNSt3__112__to_addressB7v160006INS_16reverse_iteratorIPNS_5tupleIJdjNS_12basic_stringIcNS_11char_traitsIcEENS_9allocatorIcEEEEEEEEEvEENS_5decayIDTclsr19__to_address_helperIT_EE6__callclsr3stdE7declvalIRKSD_EEEEE4typeESF_, symObjAddr: 0x3628, symBinAddr: 0x100007AE0, symSize: 0x24 }
  - { offsetInCU: 0x91E2, offset: 0x91E2, size: 0x8, addend: 0x0, symName: __ZNSt3__119__allocator_destroyB7v160006INS_9allocatorINS_5tupleIJdjNS_12basic_stringIcNS_11char_traitsIcEENS1_IcEEEEEEEEENS_16reverse_iteratorINSA_IPS8_EEEESD_EEvRT_T0_T1_, symObjAddr: 0x38D8, symBinAddr: 0x100007D90, symSize: 0x70 }
  - { offsetInCU: 0x9247, offset: 0x9247, size: 0x8, addend: 0x0, symName: __ZNSt3__1neB7v160006INS_16reverse_iteratorIPNS_5tupleIJdjNS_12basic_stringIcNS_11char_traitsIcEENS_9allocatorIcEEEEEEEEESB_EEbRKNS1_IT_EERKNS1_IT0_EE, symObjAddr: 0x3984, symBinAddr: 0x100007E3C, symSize: 0x60 }
  - { offsetInCU: 0x9293, offset: 0x9293, size: 0x8, addend: 0x0, symName: __ZNSt3__112__to_addressB7v160006INS_16reverse_iteratorINS1_IPNS_5tupleIJdjNS_12basic_stringIcNS_11char_traitsIcEENS_9allocatorIcEEEEEEEEEEEvEENS_5decayIDTclsr19__to_address_helperIT_EE6__callclsr3stdE7declvalIRKSE_EEEEE4typeESG_, symObjAddr: 0x39E4, symBinAddr: 0x100007E9C, symSize: 0x24 }
  - { offsetInCU: 0x92F2, offset: 0x92F2, size: 0x8, addend: 0x0, symName: __ZNSt3__14sortB7v160006INS_11__wrap_iterIPNS_5tupleIJdjNS_12basic_stringIcNS_11char_traitsIcEENS_9allocatorIcEEEEEEEEENS_6__lessIS9_S9_EEEEvT_SE_T0_, symObjAddr: 0x3E9C, symBinAddr: 0x100008354, symSize: 0x40 }
  - { offsetInCU: 0x934C, offset: 0x934C, size: 0x8, addend: 0x0, symName: __ZNSt3__111__sort_implB7v160006INS_17_ClassicAlgPolicyENS_11__wrap_iterIPNS_5tupleIJdjNS_12basic_stringIcNS_11char_traitsIcEENS_9allocatorIcEEEEEEEEENS_6__lessISA_SA_EEEEvT0_SF_RT1_, symObjAddr: 0x3EDC, symBinAddr: 0x100008394, symSize: 0x84 }
  - { offsetInCU: 0x93F3, offset: 0x93F3, size: 0x8, addend: 0x0, symName: __ZNSt3__123__debug_randomize_rangeB7v160006INS_17_ClassicAlgPolicyENS_11__wrap_iterIPNS_5tupleIJdjNS_12basic_stringIcNS_11char_traitsIcEENS_9allocatorIcEEEEEEEEESC_EEvT0_T1_, symObjAddr: 0x3F60, symBinAddr: 0x100008418, symSize: 0x14 }
  - { offsetInCU: 0x9444, offset: 0x9444, size: 0x8, addend: 0x0, symName: __ZNSt3__16__sortIRNS_6__lessINS_5tupleIJdjNS_12basic_stringIcNS_11char_traitsIcEENS_9allocatorIcEEEEEEES9_EEPS9_EEvT0_SD_T_, symObjAddr: 0x3F74, symBinAddr: 0x10000842C, symSize: 0x68 }
  - { offsetInCU: 0x94D4, offset: 0x94D4, size: 0x8, addend: 0x0, symName: __ZNSt3__113__unwrap_iterB7v160006INS_11__wrap_iterIPNS_5tupleIJdjNS_12basic_stringIcNS_11char_traitsIcEENS_9allocatorIcEEEEEEEEENS_18__unwrap_iter_implISB_Lb1EEELi0EEEDTclsrT0_8__unwrapclsr3stdE7declvalIT_EEEESF_, symObjAddr: 0x3FDC, symBinAddr: 0x100008494, symSize: 0x2C }
  - { offsetInCU: 0x9518, offset: 0x9518, size: 0x8, addend: 0x0, symName: __ZNSt3__17__log2iB7v160006IlEET_S1_, symObjAddr: 0x4008, symBinAddr: 0x1000084C0, symSize: 0x54 }
  - { offsetInCU: 0x95BD, offset: 0x95BD, size: 0x8, addend: 0x0, symName: __ZNSt3__112__libcpp_clzB7v160006Em, symObjAddr: 0x4758, symBinAddr: 0x100008C10, symSize: 0x1C }
  - { offsetInCU: 0x9683, offset: 0x9683, size: 0x8, addend: 0x0, symName: __ZNSt3__124__sort3_maybe_branchlessB7v160006INS_17_ClassicAlgPolicyERNS_6__lessINS_5tupleIJdjNS_12basic_stringIcNS_11char_traitsIcEENS_9allocatorIcEEEEEEESA_EEPSA_EENS_9enable_ifIXntsr21__use_branchless_sortIT0_T1_EE5valueEvE4typeESG_SG_SG_SF_, symObjAddr: 0x47DC, symBinAddr: 0x100008C94, symSize: 0x3C }
  - { offsetInCU: 0x96F4, offset: 0x96F4, size: 0x8, addend: 0x0, symName: __ZNSt3__124__sort4_maybe_branchlessB7v160006INS_17_ClassicAlgPolicyERNS_6__lessINS_5tupleIJdjNS_12basic_stringIcNS_11char_traitsIcEENS_9allocatorIcEEEEEEESA_EEPSA_EENS_9enable_ifIXntsr21__use_branchless_sortIT0_T1_EE5valueEvE4typeESG_SG_SG_SG_SF_, symObjAddr: 0x4818, symBinAddr: 0x100008CD0, symSize: 0x44 }
  - { offsetInCU: 0x9779, offset: 0x9779, size: 0x8, addend: 0x0, symName: __ZNSt3__124__sort5_maybe_branchlessB7v160006INS_17_ClassicAlgPolicyERNS_6__lessINS_5tupleIJdjNS_12basic_stringIcNS_11char_traitsIcEENS_9allocatorIcEEEEEEESA_EEPSA_EENS_9enable_ifIXntsr21__use_branchless_sortIT0_T1_EE5valueEvE4typeESG_SG_SG_SG_SG_SF_, symObjAddr: 0x485C, symBinAddr: 0x100008D14, symSize: 0x4C }
  - { offsetInCU: 0x980D, offset: 0x980D, size: 0x8, addend: 0x0, symName: __ZNSt3__114__partial_sortB7v160006INS_17_ClassicAlgPolicyERNS_6__lessINS_5tupleIJdjNS_12basic_stringIcNS_11char_traitsIcEENS_9allocatorIcEEEEEEESA_EEPSA_SD_EET1_SE_SE_T2_RT0_, symObjAddr: 0x4A30, symBinAddr: 0x100008EE8, symSize: 0x94 }
  - { offsetInCU: 0x9895, offset: 0x9895, size: 0x8, addend: 0x0, symName: __ZNSt3__119__sort5_wrap_policyB7v160006INS_17_ClassicAlgPolicyERNS_6__lessINS_5tupleIJdjNS_12basic_stringIcNS_11char_traitsIcEENS_9allocatorIcEEEEEEESA_EEPSA_EEjT1_SE_SE_SE_SE_T0_, symObjAddr: 0x4AC4, symBinAddr: 0x100008F7C, symSize: 0x54 }
  - { offsetInCU: 0x993B, offset: 0x993B, size: 0x8, addend: 0x0, symName: __ZNSt3__17__sort3B7v160006INS_17_ClassicAlgPolicyERNS_6__lessINS_5tupleIJdjNS_12basic_stringIcNS_11char_traitsIcEENS_9allocatorIcEEEEEEESA_EEPSA_EEjT1_SE_SE_T0_, symObjAddr: 0x4B18, symBinAddr: 0x100008FD0, symSize: 0x144 }
  - { offsetInCU: 0x99BA, offset: 0x99BA, size: 0x8, addend: 0x0, symName: __ZNSt3__1ltB7v160006IJdjNS_12basic_stringIcNS_11char_traitsIcEENS_9allocatorIcEEEEEJdjS6_EEEbRKNS_5tupleIJDpT_EEERKNS7_IJDpT0_EEE, symObjAddr: 0x4FEC, symBinAddr: 0x1000094A4, symSize: 0x34 }
  - { offsetInCU: 0x9A68, offset: 0x9A68, size: 0x8, addend: 0x0, symName: __ZNSt3__13getB7v160006ILm0EJdjNS_12basic_stringIcNS_11char_traitsIcEENS_9allocatorIcEEEEEEERKNS_13tuple_elementIXT_ENS_5tupleIJDpT0_EEEE4typeERKSB_, symObjAddr: 0x50F8, symBinAddr: 0x1000095B0, symSize: 0x24 }
  - { offsetInCU: 0x9AFC, offset: 0x9AFC, size: 0x8, addend: 0x0, symName: __ZNSt3__13getB7v160006ILm1EJdjNS_12basic_stringIcNS_11char_traitsIcEENS_9allocatorIcEEEEEEERKNS_13tuple_elementIXT_ENS_5tupleIJDpT0_EEEE4typeERKSB_, symObjAddr: 0x520C, symBinAddr: 0x1000096C4, symSize: 0x28 }
  - { offsetInCU: 0x9B90, offset: 0x9B90, size: 0x8, addend: 0x0, symName: __ZNSt3__1ltB7v160006IcNS_11char_traitsIcEENS_9allocatorIcEEEEbRKNS_12basic_stringIT_T0_T1_EESB_, symObjAddr: 0x5314, symBinAddr: 0x1000097CC, symSize: 0x38 }
  - { offsetInCU: 0x9BE8, offset: 0x9BE8, size: 0x8, addend: 0x0, symName: __ZNSt3__13getB7v160006ILm2EJdjNS_12basic_stringIcNS_11char_traitsIcEENS_9allocatorIcEEEEEEERKNS_13tuple_elementIXT_ENS_5tupleIJDpT0_EEEE4typeERKSB_, symObjAddr: 0x534C, symBinAddr: 0x100009804, symSize: 0x28 }
  - { offsetInCU: 0x9CA0, offset: 0x9CA0, size: 0x8, addend: 0x0, symName: __ZNSt3__118__constexpr_memcmpB7v160006IcEEiPKT_S3_m, symObjAddr: 0x5620, symBinAddr: 0x100009AD8, symSize: 0x34 }
  - { offsetInCU: 0x9CF1, offset: 0x9CF1, size: 0x8, addend: 0x0, symName: __ZNSt3__112__to_addressB7v160006IKcEEPT_S3_, symObjAddr: 0x5654, symBinAddr: 0x100009B0C, symSize: 0x14 }
  - { offsetInCU: 0x9D59, offset: 0x9D59, size: 0x8, addend: 0x0, symName: __ZNSt3__19iter_swapB7v160006IPNS_5tupleIJdjNS_12basic_stringIcNS_11char_traitsIcEENS_9allocatorIcEEEEEEES9_EEvT_T0_, symObjAddr: 0x57C0, symBinAddr: 0x100009C78, symSize: 0x2C }
  - { offsetInCU: 0x9DA1, offset: 0x9DA1, size: 0x8, addend: 0x0, symName: __ZNSt3__14swapB7v160006IJdjNS_12basic_stringIcNS_11char_traitsIcEENS_9allocatorIcEEEEEEENS_9enable_ifIXsr5__allIXspsr14__is_swappableIT_EE5valueEEE5valueEvE4typeERNS_5tupleIJDpS8_EEESE_, symObjAddr: 0x57EC, symBinAddr: 0x100009CA4, symSize: 0x2C }
  - { offsetInCU: 0x9DF3, offset: 0x9DF3, size: 0x8, addend: 0x0, symName: __ZNSt3__19__swallowB7v160006IJiiiEEEvDpOT_, symObjAddr: 0x58CC, symBinAddr: 0x100009D84, symSize: 0x18 }
  - { offsetInCU: 0x9E44, offset: 0x9E44, size: 0x8, addend: 0x0, symName: __ZNSt3__14swapB7v160006ILm0EdLb0EEEvRNS_12__tuple_leafIXT_ET0_XT1_EEES4_, symObjAddr: 0x5974, symBinAddr: 0x100009E2C, symSize: 0x40 }
  - { offsetInCU: 0x9E9A, offset: 0x9E9A, size: 0x8, addend: 0x0, symName: __ZNSt3__14swapB7v160006IdEENS_9enable_ifIXaasr21is_move_constructibleIT_EE5valuesr18is_move_assignableIS2_EE5valueEvE4typeERS2_S5_, symObjAddr: 0x59B4, symBinAddr: 0x100009E6C, symSize: 0x3C }
  - { offsetInCU: 0x9EEB, offset: 0x9EEB, size: 0x8, addend: 0x0, symName: __ZNSt3__14swapB7v160006ILm1EjLb0EEEvRNS_12__tuple_leafIXT_ET0_XT1_EEES4_, symObjAddr: 0x59F0, symBinAddr: 0x100009EA8, symSize: 0x40 }
  - { offsetInCU: 0x9F41, offset: 0x9F41, size: 0x8, addend: 0x0, symName: __ZNSt3__14swapB7v160006IjEENS_9enable_ifIXaasr21is_move_constructibleIT_EE5valuesr18is_move_assignableIS2_EE5valueEvE4typeERS2_S5_, symObjAddr: 0x5A30, symBinAddr: 0x100009EE8, symSize: 0x3C }
  - { offsetInCU: 0x9F92, offset: 0x9F92, size: 0x8, addend: 0x0, symName: __ZNSt3__14swapB7v160006ILm2ENS_12basic_stringIcNS_11char_traitsIcEENS_9allocatorIcEEEELb0EEEvRNS_12__tuple_leafIXT_ET0_XT1_EEESA_, symObjAddr: 0x5A6C, symBinAddr: 0x100009F24, symSize: 0x40 }
  - { offsetInCU: 0x9FE8, offset: 0x9FE8, size: 0x8, addend: 0x0, symName: __ZNSt3__14swapB7v160006IcNS_11char_traitsIcEENS_9allocatorIcEEEEvRNS_12basic_stringIT_T0_T1_EESA_, symObjAddr: 0x5AAC, symBinAddr: 0x100009F64, symSize: 0x2C }
  - { offsetInCU: 0xA03C, offset: 0xA03C, size: 0x8, addend: 0x0, symName: __ZNSt3__14swapB7v160006INS_12basic_stringIcNS_11char_traitsIcEENS_9allocatorIcEEE5__repEEENS_9enable_ifIXaasr21is_move_constructibleIT_EE5valuesr18is_move_assignableIS9_EE5valueEvE4typeERS9_SC_, symObjAddr: 0x5B80, symBinAddr: 0x10000A038, symSize: 0x54 }
  - { offsetInCU: 0xA08D, offset: 0xA08D, size: 0x8, addend: 0x0, symName: __ZNSt3__116__swap_allocatorB7v160006INS_9allocatorIcEEEEvRT_S4_, symObjAddr: 0x5BD4, symBinAddr: 0x10000A08C, symSize: 0x2C }
  - { offsetInCU: 0xA0CC, offset: 0xA0CC, size: 0x8, addend: 0x0, symName: __ZNSt3__116__swap_allocatorB7v160006INS_9allocatorIcEEEEvRT_S4_NS_17integral_constantIbLb0EEE, symObjAddr: 0x5C24, symBinAddr: 0x10000A0DC, symSize: 0x14 }
  - { offsetInCU: 0xA10D, offset: 0xA10D, size: 0x8, addend: 0x0, symName: __ZNSt3__17__sort4B7v160006INS_17_ClassicAlgPolicyERNS_6__lessINS_5tupleIJdjNS_12basic_stringIcNS_11char_traitsIcEENS_9allocatorIcEEEEEEESA_EEPSA_EEjT1_SE_SE_SE_T0_, symObjAddr: 0x5C70, symBinAddr: 0x10000A128, symSize: 0xE4 }
  - { offsetInCU: 0xA1BE, offset: 0xA1BE, size: 0x8, addend: 0x0, symName: __ZNSt3__127__memberwise_forward_assignB7v160006INS_5tupleIJdjNS_12basic_stringIcNS_11char_traitsIcEENS_9allocatorIcEEEEEEES8_JdjS7_EJLm0ELm1ELm2EEEEvRT_OT0_NS_13__tuple_typesIJDpT1_EEENS_15__tuple_indicesIJXspT2_EEEE, symObjAddr: 0x5DBC, symBinAddr: 0x10000A274, symSize: 0xA8 }
  - { offsetInCU: 0xA24C, offset: 0xA24C, size: 0x8, addend: 0x0, symName: __ZNSt3__123__debug_randomize_rangeB7v160006INS_17_ClassicAlgPolicyEPNS_5tupleIJdjNS_12basic_stringIcNS_11char_traitsIcEENS_9allocatorIcEEEEEEESA_EEvT0_T1_, symObjAddr: 0x6080, symBinAddr: 0x10000A538, symSize: 0x14 }
  - { offsetInCU: 0xA29D, offset: 0xA29D, size: 0x8, addend: 0x0, symName: __ZNSt3__119__partial_sort_implB7v160006INS_17_ClassicAlgPolicyERNS_6__lessINS_5tupleIJdjNS_12basic_stringIcNS_11char_traitsIcEENS_9allocatorIcEEEEEEESA_EEPSA_SD_EET1_SE_SE_T2_OT0_, symObjAddr: 0x6094, symBinAddr: 0x10000A54C, symSize: 0x110 }
  - { offsetInCU: 0xA333, offset: 0xA333, size: 0x8, addend: 0x0, symName: __ZNSt3__111__make_heapB7v160006INS_17_ClassicAlgPolicyERNS_6__lessINS_5tupleIJdjNS_12basic_stringIcNS_11char_traitsIcEENS_9allocatorIcEEEEEEESA_EEPSA_EEvT1_SE_OT0_, symObjAddr: 0x61A4, symBinAddr: 0x10000A65C, symSize: 0xC0 }
  - { offsetInCU: 0xA3D5, offset: 0xA3D5, size: 0x8, addend: 0x0, symName: __ZNSt3__111__sort_heapB7v160006INS_17_ClassicAlgPolicyERNS_6__lessINS_5tupleIJdjNS_12basic_stringIcNS_11char_traitsIcEENS_9allocatorIcEEEEEEESA_EEPSA_EEvT1_SE_OT0_, symObjAddr: 0x64D0, symBinAddr: 0x10000A988, symSize: 0x90 }
  - { offsetInCU: 0xA469, offset: 0xA469, size: 0x8, addend: 0x0, symName: __ZNSt3__110__pop_heapB7v160006INS_17_ClassicAlgPolicyENS_6__lessINS_5tupleIJdjNS_12basic_stringIcNS_11char_traitsIcEENS_9allocatorIcEEEEEEESA_EEPSA_EEvT1_SD_RT0_NS_15iterator_traitsISD_E15difference_typeE, symObjAddr: 0x6560, symBinAddr: 0x10000AA18, symSize: 0x138 }
  - { offsetInCU: 0xA511, offset: 0xA511, size: 0x8, addend: 0x0, symName: __ZNSt3__19__sift_upB7v160006INS_17_ClassicAlgPolicyERNS_6__lessINS_5tupleIJdjNS_12basic_stringIcNS_11char_traitsIcEENS_9allocatorIcEEEEEEESA_EEPSA_EEvT1_SE_OT0_NS_15iterator_traitsISE_E15difference_typeE, symObjAddr: 0x67A0, symBinAddr: 0x10000AC58, symSize: 0x170 }
  - { offsetInCU: 0xA5B1, offset: 0xA5B1, size: 0x8, addend: 0x0, symName: __ZNSt3__17__sort5IRNS_6__lessINS_5tupleIJdjNS_12basic_stringIcNS_11char_traitsIcEENS_9allocatorIcEEEEEEES9_EEPS9_EEjT0_SD_SD_SD_SD_T_, symObjAddr: 0x6910, symBinAddr: 0x10000ADC8, symSize: 0x12C }
  - { offsetInCU: 0xA6AF, offset: 0xA6AF, size: 0x8, addend: 0x0, symName: __ZNSt3__112__to_addressB7v160006INS_11__wrap_iterIPNS_5tupleIJdjNS_12basic_stringIcNS_11char_traitsIcEENS_9allocatorIcEEEEEEEEEvEENS_5decayIDTclsr19__to_address_helperIT_EE6__callclsr3stdE7declvalIRKSD_EEEEE4typeESF_, symObjAddr: 0x6A64, symBinAddr: 0x10000AF1C, symSize: 0x24 }
  - { offsetInCU: 0xA78E, offset: 0xA78E, size: 0x8, addend: 0x0, symName: __ZNSt3__116__pad_and_outputB7v160006IcNS_11char_traitsIcEEEENS_19ostreambuf_iteratorIT_T0_EES6_PKS4_S8_S8_RNS_8ios_baseES4_, symObjAddr: 0x6CEC, symBinAddr: 0x10000B1A4, symSize: 0x240 }
  - { offsetInCU: 0xAB4A, offset: 0xAB4A, size: 0x8, addend: 0x0, symName: __ZSt28__throw_bad_array_new_lengthB7v160006v, symObjAddr: 0x31E0, symBinAddr: 0x100007698, symSize: 0x34 }
  - { offsetInCU: 0xB0ED, offset: 0xB0ED, size: 0x8, addend: 0x0, symName: __ZNSt3__16vectorINS_5tupleIJdjNS_12basic_stringIcNS_11char_traitsIcEENS_9allocatorIcEEEEEEENS5_IS8_EEE26__swap_out_circular_bufferERNS_14__split_bufferIS8_RS9_EE, symObjAddr: 0x2AFC, symBinAddr: 0x100006FB4, symSize: 0x118 }
  - { offsetInCU: 0xD42C, offset: 0xD42C, size: 0x8, addend: 0x0, symName: _main, symObjAddr: 0x0, symBinAddr: 0x1000044B8, symSize: 0x5A0 }
  - { offsetInCU: 0xD57C, offset: 0xD57C, size: 0x8, addend: 0x0, symName: __ZNSt3__16vectorINS_5tupleIJdjNS_12basic_stringIcNS_11char_traitsIcEENS_9allocatorIcEEEEEEENS5_IS8_EEEC1B7v160006Ev, symObjAddr: 0x5A0, symBinAddr: 0x100004A58, symSize: 0x2C }
  - { offsetInCU: 0xD5A6, offset: 0xD5A6, size: 0x8, addend: 0x0, symName: __ZNSt3__112basic_stringIcNS_11char_traitsIcEENS_9allocatorIcEEEC1B7v160006Ev, symObjAddr: 0x5CC, symBinAddr: 0x100004A84, symSize: 0x2C }
  - { offsetInCU: 0xD5D0, offset: 0xD5D0, size: 0x8, addend: 0x0, symName: __ZNKSt3__19basic_iosIcNS_11char_traitsIcEEEcvbB7v160006Ev, symObjAddr: 0x914, symBinAddr: 0x100004DCC, symSize: 0x2C }
  - { offsetInCU: 0xD5F6, offset: 0xD5F6, size: 0x8, addend: 0x0, symName: __ZNSt3__16vectorINS_5tupleIJdjNS_12basic_stringIcNS_11char_traitsIcEENS_9allocatorIcEEEEEEENS5_IS8_EEE9push_backB7v160006EOS8_, symObjAddr: 0x9EC, symBinAddr: 0x100004EA4, symSize: 0x6C }
  - { offsetInCU: 0xD685, offset: 0xD685, size: 0x8, addend: 0x0, symName: __ZNSt3__15tupleIJdjNS_12basic_stringIcNS_11char_traitsIcEENS_9allocatorIcEEEEEEC1B7v160006IJjjS6_ELi0EEEONS0_IJDpT_EEE, symObjAddr: 0xAA0, symBinAddr: 0x100004F58, symSize: 0x34 }
  - { offsetInCU: 0xD6D9, offset: 0xD6D9, size: 0x8, addend: 0x0, symName: __ZNSt3__15tupleIJdjNS_12basic_stringIcNS_11char_traitsIcEENS_9allocatorIcEEEEEED1Ev, symObjAddr: 0xAD4, symBinAddr: 0x100004F8C, symSize: 0x2C }
  - { offsetInCU: 0xD706, offset: 0xD706, size: 0x8, addend: 0x0, symName: __ZNSt3__15tupleIJjjNS_12basic_stringIcNS_11char_traitsIcEENS_9allocatorIcEEEEEED1Ev, symObjAddr: 0xB00, symBinAddr: 0x100004FB8, symSize: 0x2C }
  - { offsetInCU: 0xD733, offset: 0xD733, size: 0x8, addend: 0x0, symName: __ZNSt3__16vectorINS_5tupleIJdjNS_12basic_stringIcNS_11char_traitsIcEENS_9allocatorIcEEEEEEENS5_IS8_EEE5beginB7v160006Ev, symObjAddr: 0xB2C, symBinAddr: 0x100004FE4, symSize: 0x30 }
  - { offsetInCU: 0xD75B, offset: 0xD75B, size: 0x8, addend: 0x0, symName: __ZNSt3__16vectorINS_5tupleIJdjNS_12basic_stringIcNS_11char_traitsIcEENS_9allocatorIcEEEEEEENS5_IS8_EEE3endB7v160006Ev, symObjAddr: 0xB5C, symBinAddr: 0x100005014, symSize: 0x30 }
  - { offsetInCU: 0xD783, offset: 0xD783, size: 0x8, addend: 0x0, symName: __ZNKSt3__111__wrap_iterIPNS_5tupleIJdjNS_12basic_stringIcNS_11char_traitsIcEENS_9allocatorIcEEEEEEEEdeB7v160006Ev, symObjAddr: 0xBC0, symBinAddr: 0x100005078, symSize: 0x18 }
  - { offsetInCU: 0xD7A9, offset: 0xD7A9, size: 0x8, addend: 0x0, symName: __ZNSt3__113basic_ostreamIcNS_11char_traitsIcEEElsB7v160006EPFRS3_S4_E, symObjAddr: 0xBFC, symBinAddr: 0x1000050B4, symSize: 0x2C }
  - { offsetInCU: 0xD7DD, offset: 0xD7DD, size: 0x8, addend: 0x0, symName: __ZNSt3__111__wrap_iterIPNS_5tupleIJdjNS_12basic_stringIcNS_11char_traitsIcEENS_9allocatorIcEEEEEEEEppB7v160006Ev, symObjAddr: 0xC80, symBinAddr: 0x100005138, symSize: 0x20 }
  - { offsetInCU: 0xD803, offset: 0xD803, size: 0x8, addend: 0x0, symName: __ZNSt3__16vectorINS_5tupleIJdjNS_12basic_stringIcNS_11char_traitsIcEENS_9allocatorIcEEEEEEENS5_IS8_EEEixB7v160006Em, symObjAddr: 0xD04, symBinAddr: 0x1000051BC, symSize: 0x2C }
  - { offsetInCU: 0xD83A, offset: 0xD83A, size: 0x8, addend: 0x0, symName: __ZNSt3__16vectorINS_5tupleIJdjNS_12basic_stringIcNS_11char_traitsIcEENS_9allocatorIcEEEEEEENS5_IS8_EEED1B7v160006Ev, symObjAddr: 0xDEC, symBinAddr: 0x1000052A4, symSize: 0x2C }
  - { offsetInCU: 0xD864, offset: 0xD864, size: 0x8, addend: 0x0, symName: __ZNSt3__15tupleIJjjNS_12basic_stringIcNS_11char_traitsIcEENS_9allocatorIcEEEEEEC1B7v160006IJRjS9_RS6_ELi0EEEDpOT_, symObjAddr: 0xE18, symBinAddr: 0x1000052D0, symSize: 0x44 }
  - { offsetInCU: 0xD8D6, offset: 0xD8D6, size: 0x8, addend: 0x0, symName: __ZNSt3__15tupleIJjjNS_12basic_stringIcNS_11char_traitsIcEENS_9allocatorIcEEEEEEC2B7v160006IJRjS9_RS6_ELi0EEEDpOT_, symObjAddr: 0xE5C, symBinAddr: 0x100005314, symSize: 0x44 }
  - { offsetInCU: 0xD948, offset: 0xD948, size: 0x8, addend: 0x0, symName: __ZNSt3__112__tuple_implINS_15__tuple_indicesIJLm0ELm1ELm2EEEEJjjNS_12basic_stringIcNS_11char_traitsIcEENS_9allocatorIcEEEEEEC1B7v160006IJLm0ELm1ELm2EEJjjS8_EJEJEJRjSB_RS8_EEENS1_IJXspT_EEEENS_13__tuple_typesIJDpT0_EEENS1_IJXspT1_EEEENSE_IJDpT2_EEEDpOT3_, symObjAddr: 0xEA0, symBinAddr: 0x100005358, symSize: 0x44 }
  - { offsetInCU: 0xDA17, offset: 0xDA17, size: 0x8, addend: 0x0, symName: __ZNSt3__112__tuple_implINS_15__tuple_indicesIJLm0ELm1ELm2EEEEJjjNS_12basic_stringIcNS_11char_traitsIcEENS_9allocatorIcEEEEEEC2B7v160006IJLm0ELm1ELm2EEJjjS8_EJEJEJRjSB_RS8_EEENS1_IJXspT_EEEENS_13__tuple_typesIJDpT0_EEENS1_IJXspT1_EEEENSE_IJDpT2_EEEDpOT3_, symObjAddr: 0xEE4, symBinAddr: 0x10000539C, symSize: 0x5C }
  - { offsetInCU: 0xDAE6, offset: 0xDAE6, size: 0x8, addend: 0x0, symName: __ZNSt3__112__tuple_leafILm0EjLb0EEC2B7v160006IRjvEEOT_, symObjAddr: 0xF40, symBinAddr: 0x1000053F8, symSize: 0x24 }
  - { offsetInCU: 0xDB29, offset: 0xDB29, size: 0x8, addend: 0x0, symName: __ZNSt3__112__tuple_leafILm1EjLb0EEC2B7v160006IRjvEEOT_, symObjAddr: 0xF64, symBinAddr: 0x10000541C, symSize: 0x24 }
  - { offsetInCU: 0xDB6C, offset: 0xDB6C, size: 0x8, addend: 0x0, symName: __ZNSt3__112__tuple_leafILm2ENS_12basic_stringIcNS_11char_traitsIcEENS_9allocatorIcEEEELb0EEC2B7v160006IRS6_vEEOT_, symObjAddr: 0xF88, symBinAddr: 0x100005440, symSize: 0x34 }
  - { offsetInCU: 0xDBAF, offset: 0xDBAF, size: 0x8, addend: 0x0, symName: __ZNSt3__15tupleIJdjNS_12basic_stringIcNS_11char_traitsIcEENS_9allocatorIcEEEEEEC2B7v160006IJjjS6_ELi0EEEONS0_IJDpT_EEE, symObjAddr: 0xFBC, symBinAddr: 0x100005474, symSize: 0x34 }
  - { offsetInCU: 0xDC03, offset: 0xDC03, size: 0x8, addend: 0x0, symName: __ZNSt3__112__tuple_implINS_15__tuple_indicesIJLm0ELm1ELm2EEEEJdjNS_12basic_stringIcNS_11char_traitsIcEENS_9allocatorIcEEEEEEC1B7v160006INS_5tupleIJjjS8_EEEvEEOT_, symObjAddr: 0xFF0, symBinAddr: 0x1000054A8, symSize: 0x34 }
  - { offsetInCU: 0xDC46, offset: 0xDC46, size: 0x8, addend: 0x0, symName: __ZNSt3__112__tuple_implINS_15__tuple_indicesIJLm0ELm1ELm2EEEEJdjNS_12basic_stringIcNS_11char_traitsIcEENS_9allocatorIcEEEEEEC2B7v160006INS_5tupleIJjjS8_EEEvEEOT_, symObjAddr: 0x1024, symBinAddr: 0x1000054DC, symSize: 0x70 }
  - { offsetInCU: 0xDC8F, offset: 0xDC8F, size: 0x8, addend: 0x0, symName: __ZNSt3__112__tuple_leafILm0EdLb0EEC2B7v160006IjvEEOT_, symObjAddr: 0x10B8, symBinAddr: 0x100005570, symSize: 0x2C }
  - { offsetInCU: 0xDCD2, offset: 0xDCD2, size: 0x8, addend: 0x0, symName: __ZNSt3__112__tuple_leafILm1EjLb0EEC2B7v160006IjvEEOT_, symObjAddr: 0x110C, symBinAddr: 0x1000055C4, symSize: 0x24 }
  - { offsetInCU: 0xDD1B, offset: 0xDD1B, size: 0x8, addend: 0x0, symName: __ZNSt3__112__tuple_leafILm2ENS_12basic_stringIcNS_11char_traitsIcEENS_9allocatorIcEEEELb0EEC2B7v160006IS6_vEEOT_, symObjAddr: 0x1158, symBinAddr: 0x100005610, symSize: 0x34 }
  - { offsetInCU: 0xDD5E, offset: 0xDD5E, size: 0x8, addend: 0x0, symName: __ZNSt3__112__tuple_leafILm0EjLb0EE3getB7v160006Ev, symObjAddr: 0x118C, symBinAddr: 0x100005644, symSize: 0x14 }
  - { offsetInCU: 0xDD84, offset: 0xDD84, size: 0x8, addend: 0x0, symName: __ZNSt3__112__tuple_leafILm1EjLb0EE3getB7v160006Ev, symObjAddr: 0x11A0, symBinAddr: 0x100005658, symSize: 0x14 }
  - { offsetInCU: 0xDDAA, offset: 0xDDAA, size: 0x8, addend: 0x0, symName: __ZNSt3__112__tuple_leafILm2ENS_12basic_stringIcNS_11char_traitsIcEENS_9allocatorIcEEEELb0EE3getB7v160006Ev, symObjAddr: 0x11B4, symBinAddr: 0x10000566C, symSize: 0x14 }
  - { offsetInCU: 0xDDD0, offset: 0xDDD0, size: 0x8, addend: 0x0, symName: __ZNSt3__112basic_stringIcNS_11char_traitsIcEENS_9allocatorIcEEEC1B7v160006EOS5_, symObjAddr: 0x11C8, symBinAddr: 0x100005680, symSize: 0x34 }
  - { offsetInCU: 0xDE09, offset: 0xDE09, size: 0x8, addend: 0x0, symName: __ZNSt3__112basic_stringIcNS_11char_traitsIcEENS_9allocatorIcEEEC2B7v160006EOS5_, symObjAddr: 0x11FC, symBinAddr: 0x1000056B4, symSize: 0x88 }
  - { offsetInCU: 0xDE42, offset: 0xDE42, size: 0x8, addend: 0x0, symName: __ZNSt3__112basic_stringIcNS_11char_traitsIcEENS_9allocatorIcEEE14__default_initB7v160006Ev, symObjAddr: 0x1284, symBinAddr: 0x10000573C, symSize: 0x40 }
  - { offsetInCU: 0xDE68, offset: 0xDE68, size: 0x8, addend: 0x0, symName: __ZNKSt3__112basic_stringIcNS_11char_traitsIcEENS_9allocatorIcEEE9__is_longB7v160006Ev, symObjAddr: 0x12E0, symBinAddr: 0x100005798, symSize: 0x38 }
  - { offsetInCU: 0xDE8E, offset: 0xDE8E, size: 0x8, addend: 0x0, symName: __ZNSt3__117__compressed_pairINS_12basic_stringIcNS_11char_traitsIcEENS_9allocatorIcEEE5__repES5_E5firstB7v160006Ev, symObjAddr: 0x132C, symBinAddr: 0x1000057E4, symSize: 0x24 }
  - { offsetInCU: 0xDEB4, offset: 0xDEB4, size: 0x8, addend: 0x0, symName: __ZNSt3__122__compressed_pair_elemINS_12basic_stringIcNS_11char_traitsIcEENS_9allocatorIcEEE5__repELi0ELb0EE5__getB7v160006Ev, symObjAddr: 0x1350, symBinAddr: 0x100005808, symSize: 0x14 }
  - { offsetInCU: 0xDEDA, offset: 0xDEDA, size: 0x8, addend: 0x0, symName: __ZNKSt3__117__compressed_pairINS_12basic_stringIcNS_11char_traitsIcEENS_9allocatorIcEEE5__repES5_E5firstB7v160006Ev, symObjAddr: 0x1364, symBinAddr: 0x10000581C, symSize: 0x24 }
  - { offsetInCU: 0xDF00, offset: 0xDF00, size: 0x8, addend: 0x0, symName: __ZNKSt3__122__compressed_pair_elemINS_12basic_stringIcNS_11char_traitsIcEENS_9allocatorIcEEE5__repELi0ELb0EE5__getB7v160006Ev, symObjAddr: 0x1388, symBinAddr: 0x100005840, symSize: 0x14 }
  - { offsetInCU: 0xDF26, offset: 0xDF26, size: 0x8, addend: 0x0, symName: __ZNSt3__15tupleIJdjNS_12basic_stringIcNS_11char_traitsIcEENS_9allocatorIcEEEEEED2Ev, symObjAddr: 0x139C, symBinAddr: 0x100005854, symSize: 0x2C }
  - { offsetInCU: 0xDF53, offset: 0xDF53, size: 0x8, addend: 0x0, symName: __ZNSt3__112__tuple_implINS_15__tuple_indicesIJLm0ELm1ELm2EEEEJdjNS_12basic_stringIcNS_11char_traitsIcEENS_9allocatorIcEEEEEED1Ev, symObjAddr: 0x13C8, symBinAddr: 0x100005880, symSize: 0x2C }
  - { offsetInCU: 0xDF80, offset: 0xDF80, size: 0x8, addend: 0x0, symName: __ZNSt3__112__tuple_implINS_15__tuple_indicesIJLm0ELm1ELm2EEEEJdjNS_12basic_stringIcNS_11char_traitsIcEENS_9allocatorIcEEEEEED2Ev, symObjAddr: 0x13F4, symBinAddr: 0x1000058AC, symSize: 0x30 }
  - { offsetInCU: 0xDFAD, offset: 0xDFAD, size: 0x8, addend: 0x0, symName: __ZNSt3__112__tuple_leafILm2ENS_12basic_stringIcNS_11char_traitsIcEENS_9allocatorIcEEEELb0EED2Ev, symObjAddr: 0x1424, symBinAddr: 0x1000058DC, symSize: 0x2C }
  - { offsetInCU: 0xDFDA, offset: 0xDFDA, size: 0x8, addend: 0x0, symName: __ZNSt3__15tupleIJjjNS_12basic_stringIcNS_11char_traitsIcEENS_9allocatorIcEEEEEED2Ev, symObjAddr: 0x1450, symBinAddr: 0x100005908, symSize: 0x2C }
  - { offsetInCU: 0xE007, offset: 0xE007, size: 0x8, addend: 0x0, symName: __ZNSt3__112__tuple_implINS_15__tuple_indicesIJLm0ELm1ELm2EEEEJjjNS_12basic_stringIcNS_11char_traitsIcEENS_9allocatorIcEEEEEED1Ev, symObjAddr: 0x147C, symBinAddr: 0x100005934, symSize: 0x2C }
  - { offsetInCU: 0xE034, offset: 0xE034, size: 0x8, addend: 0x0, symName: __ZNSt3__112__tuple_implINS_15__tuple_indicesIJLm0ELm1ELm2EEEEJjjNS_12basic_stringIcNS_11char_traitsIcEENS_9allocatorIcEEEEEED2Ev, symObjAddr: 0x14A8, symBinAddr: 0x100005960, symSize: 0x30 }
  - { offsetInCU: 0xE061, offset: 0xE061, size: 0x8, addend: 0x0, symName: __ZNKSt3__111__wrap_iterIPNS_5tupleIJdjNS_12basic_stringIcNS_11char_traitsIcEENS_9allocatorIcEEEEEEEE4baseB7v160006Ev, symObjAddr: 0x1520, symBinAddr: 0x1000059D8, symSize: 0x18 }
  - { offsetInCU: 0xE087, offset: 0xE087, size: 0x8, addend: 0x0, symName: __ZNSt3__112__tuple_leafILm0EdLb0EE3getB7v160006Ev, symObjAddr: 0x1538, symBinAddr: 0x1000059F0, symSize: 0x14 }
  - { offsetInCU: 0xE0AD, offset: 0xE0AD, size: 0x8, addend: 0x0, symName: __ZNSt3__16vectorINS_5tupleIJdjNS_12basic_stringIcNS_11char_traitsIcEENS_9allocatorIcEEEEEEENS5_IS8_EEEC2B7v160006Ev, symObjAddr: 0x154C, symBinAddr: 0x100005A04, symSize: 0x58 }
  - { offsetInCU: 0xE0E3, offset: 0xE0E3, size: 0x8, addend: 0x0, symName: __ZNSt3__117__compressed_pairIPNS_5tupleIJdjNS_12basic_stringIcNS_11char_traitsIcEENS_9allocatorIcEEEEEEENS5_IS8_EEEC1B7v160006IDnNS_18__default_init_tagEEEOT_OT0_, symObjAddr: 0x15A4, symBinAddr: 0x100005A5C, symSize: 0x3C }
  - { offsetInCU: 0xE13B, offset: 0xE13B, size: 0x8, addend: 0x0, symName: __ZNSt3__117__compressed_pairIPNS_5tupleIJdjNS_12basic_stringIcNS_11char_traitsIcEENS_9allocatorIcEEEEEEENS5_IS8_EEEC2B7v160006IDnNS_18__default_init_tagEEEOT_OT0_, symObjAddr: 0x15F0, symBinAddr: 0x100005AA8, symSize: 0x40 }
  - { offsetInCU: 0xE193, offset: 0xE193, size: 0x8, addend: 0x0, symName: __ZNSt3__122__compressed_pair_elemIPNS_5tupleIJdjNS_12basic_stringIcNS_11char_traitsIcEENS_9allocatorIcEEEEEEELi0ELb0EEC2B7v160006IDnvEEOT_, symObjAddr: 0x1630, symBinAddr: 0x100005AE8, symSize: 0x1C }
  - { offsetInCU: 0xE1D5, offset: 0xE1D5, size: 0x8, addend: 0x0, symName: __ZNSt3__122__compressed_pair_elemINS_9allocatorINS_5tupleIJdjNS_12basic_stringIcNS_11char_traitsIcEENS1_IcEEEEEEEEELi1ELb1EEC2B7v160006ENS_18__default_init_tagE, symObjAddr: 0x164C, symBinAddr: 0x100005B04, symSize: 0x2C }
  - { offsetInCU: 0xE209, offset: 0xE209, size: 0x8, addend: 0x0, symName: __ZNSt3__19allocatorINS_5tupleIJdjNS_12basic_stringIcNS_11char_traitsIcEENS0_IcEEEEEEEEC2B7v160006Ev, symObjAddr: 0x1678, symBinAddr: 0x100005B30, symSize: 0x2C }
  - { offsetInCU: 0xE233, offset: 0xE233, size: 0x8, addend: 0x0, symName: __ZNSt3__116__non_trivial_ifILb1ENS_9allocatorINS_5tupleIJdjNS_12basic_stringIcNS_11char_traitsIcEENS1_IcEEEEEEEEEEC2B7v160006Ev, symObjAddr: 0x16A4, symBinAddr: 0x100005B5C, symSize: 0x14 }
  - { offsetInCU: 0xE25D, offset: 0xE25D, size: 0x8, addend: 0x0, symName: __ZNSt3__16vectorINS_5tupleIJdjNS_12basic_stringIcNS_11char_traitsIcEENS_9allocatorIcEEEEEEENS5_IS8_EEED2B7v160006Ev, symObjAddr: 0x16B8, symBinAddr: 0x100005B70, symSize: 0x44 }
  - { offsetInCU: 0xE287, offset: 0xE287, size: 0x8, addend: 0x0, symName: __ZNSt3__16vectorINS_5tupleIJdjNS_12basic_stringIcNS_11char_traitsIcEENS_9allocatorIcEEEEEEENS5_IS8_EEE16__destroy_vectorC1ERSA_, symObjAddr: 0x16FC, symBinAddr: 0x100005BB4, symSize: 0x34 }
  - { offsetInCU: 0xE2C0, offset: 0xE2C0, size: 0x8, addend: 0x0, symName: __ZNSt3__16vectorINS_5tupleIJdjNS_12basic_stringIcNS_11char_traitsIcEENS_9allocatorIcEEEEEEENS5_IS8_EEE16__destroy_vectorclB7v160006Ev, symObjAddr: 0x1730, symBinAddr: 0x100005BE8, symSize: 0x9C }
  - { offsetInCU: 0xE2E6, offset: 0xE2E6, size: 0x8, addend: 0x0, symName: __ZNSt3__16vectorINS_5tupleIJdjNS_12basic_stringIcNS_11char_traitsIcEENS_9allocatorIcEEEEEEENS5_IS8_EEE16__destroy_vectorC2ERSA_, symObjAddr: 0x17CC, symBinAddr: 0x100005C84, symSize: 0x20 }
  - { offsetInCU: 0xE31F, offset: 0xE31F, size: 0x8, addend: 0x0, symName: __ZNKSt3__16vectorINS_5tupleIJdjNS_12basic_stringIcNS_11char_traitsIcEENS_9allocatorIcEEEEEEENS5_IS8_EEE17__annotate_deleteB7v160006Ev, symObjAddr: 0x17EC, symBinAddr: 0x100005CA4, symSize: 0xD4 }
  - { offsetInCU: 0xE345, offset: 0xE345, size: 0x8, addend: 0x0, symName: __ZNSt3__16vectorINS_5tupleIJdjNS_12basic_stringIcNS_11char_traitsIcEENS_9allocatorIcEEEEEEENS5_IS8_EEE7__clearB7v160006Ev, symObjAddr: 0x18D0, symBinAddr: 0x100005D88, symSize: 0x28 }
  - { offsetInCU: 0xE36B, offset: 0xE36B, size: 0x8, addend: 0x0, symName: __ZNSt3__116allocator_traitsINS_9allocatorINS_5tupleIJdjNS_12basic_stringIcNS_11char_traitsIcEENS1_IcEEEEEEEEEE10deallocateB7v160006ERS9_PS8_m, symObjAddr: 0x18F8, symBinAddr: 0x100005DB0, symSize: 0x34 }
  - { offsetInCU: 0xE3AD, offset: 0xE3AD, size: 0x8, addend: 0x0, symName: __ZNSt3__16vectorINS_5tupleIJdjNS_12basic_stringIcNS_11char_traitsIcEENS_9allocatorIcEEEEEEENS5_IS8_EEE7__allocB7v160006Ev, symObjAddr: 0x192C, symBinAddr: 0x100005DE4, symSize: 0x28 }
  - { offsetInCU: 0xE3D3, offset: 0xE3D3, size: 0x8, addend: 0x0, symName: __ZNKSt3__16vectorINS_5tupleIJdjNS_12basic_stringIcNS_11char_traitsIcEENS_9allocatorIcEEEEEEENS5_IS8_EEE8capacityB7v160006Ev, symObjAddr: 0x1954, symBinAddr: 0x100005E0C, symSize: 0x40 }
  - { offsetInCU: 0xE3F9, offset: 0xE3F9, size: 0x8, addend: 0x0, symName: __ZNKSt3__16vectorINS_5tupleIJdjNS_12basic_stringIcNS_11char_traitsIcEENS_9allocatorIcEEEEEEENS5_IS8_EEE31__annotate_contiguous_containerB7v160006EPKvSC_SC_SC_, symObjAddr: 0x1994, symBinAddr: 0x100005E4C, symSize: 0x20 }
  - { offsetInCU: 0xE44B, offset: 0xE44B, size: 0x8, addend: 0x0, symName: __ZNKSt3__16vectorINS_5tupleIJdjNS_12basic_stringIcNS_11char_traitsIcEENS_9allocatorIcEEEEEEENS5_IS8_EEE4dataB7v160006Ev, symObjAddr: 0x19B4, symBinAddr: 0x100005E6C, symSize: 0x28 }
  - { offsetInCU: 0xE471, offset: 0xE471, size: 0x8, addend: 0x0, symName: __ZNKSt3__16vectorINS_5tupleIJdjNS_12basic_stringIcNS_11char_traitsIcEENS_9allocatorIcEEEEEEENS5_IS8_EEE4sizeB7v160006Ev, symObjAddr: 0x19DC, symBinAddr: 0x100005E94, symSize: 0x28 }
  - { offsetInCU: 0xE497, offset: 0xE497, size: 0x8, addend: 0x0, symName: __ZNSt3__16vectorINS_5tupleIJdjNS_12basic_stringIcNS_11char_traitsIcEENS_9allocatorIcEEEEEEENS5_IS8_EEE22__base_destruct_at_endB7v160006EPS8_, symObjAddr: 0x1A18, symBinAddr: 0x100005ED0, symSize: 0x8C }
  - { offsetInCU: 0xE4DB, offset: 0xE4DB, size: 0x8, addend: 0x0, symName: __ZNSt3__116allocator_traitsINS_9allocatorINS_5tupleIJdjNS_12basic_stringIcNS_11char_traitsIcEENS1_IcEEEEEEEEEE7destroyB7v160006IS8_vEEvRS9_PT_, symObjAddr: 0x1AA4, symBinAddr: 0x100005F5C, symSize: 0x2C }
  - { offsetInCU: 0xE518, offset: 0xE518, size: 0x8, addend: 0x0, symName: __ZNSt3__19allocatorINS_5tupleIJdjNS_12basic_stringIcNS_11char_traitsIcEENS0_IcEEEEEEEE7destroyB7v160006EPS7_, symObjAddr: 0x1AD0, symBinAddr: 0x100005F88, symSize: 0x28 }
  - { offsetInCU: 0xE54C, offset: 0xE54C, size: 0x8, addend: 0x0, symName: __ZNSt3__19allocatorINS_5tupleIJdjNS_12basic_stringIcNS_11char_traitsIcEENS0_IcEEEEEEEE10deallocateB7v160006EPS7_m, symObjAddr: 0x1AF8, symBinAddr: 0x100005FB0, symSize: 0x44 }
  - { offsetInCU: 0xE58E, offset: 0xE58E, size: 0x8, addend: 0x0, symName: __ZNSt3__117__compressed_pairIPNS_5tupleIJdjNS_12basic_stringIcNS_11char_traitsIcEENS_9allocatorIcEEEEEEENS5_IS8_EEE6secondB7v160006Ev, symObjAddr: 0x1BB8, symBinAddr: 0x100006070, symSize: 0x24 }
  - { offsetInCU: 0xE5B4, offset: 0xE5B4, size: 0x8, addend: 0x0, symName: __ZNSt3__122__compressed_pair_elemINS_9allocatorINS_5tupleIJdjNS_12basic_stringIcNS_11char_traitsIcEENS1_IcEEEEEEEEELi1ELb1EE5__getB7v160006Ev, symObjAddr: 0x1BDC, symBinAddr: 0x100006094, symSize: 0x14 }
  - { offsetInCU: 0xE5DA, offset: 0xE5DA, size: 0x8, addend: 0x0, symName: __ZNKSt3__16vectorINS_5tupleIJdjNS_12basic_stringIcNS_11char_traitsIcEENS_9allocatorIcEEEEEEENS5_IS8_EEE9__end_capB7v160006Ev, symObjAddr: 0x1BF0, symBinAddr: 0x1000060A8, symSize: 0x28 }
  - { offsetInCU: 0xE600, offset: 0xE600, size: 0x8, addend: 0x0, symName: __ZNKSt3__117__compressed_pairIPNS_5tupleIJdjNS_12basic_stringIcNS_11char_traitsIcEENS_9allocatorIcEEEEEEENS5_IS8_EEE5firstB7v160006Ev, symObjAddr: 0x1C18, symBinAddr: 0x1000060D0, symSize: 0x24 }
  - { offsetInCU: 0xE626, offset: 0xE626, size: 0x8, addend: 0x0, symName: __ZNKSt3__122__compressed_pair_elemIPNS_5tupleIJdjNS_12basic_stringIcNS_11char_traitsIcEENS_9allocatorIcEEEEEEELi0ELb0EE5__getB7v160006Ev, symObjAddr: 0x1C3C, symBinAddr: 0x1000060F4, symSize: 0x14 }
  - { offsetInCU: 0xE64C, offset: 0xE64C, size: 0x8, addend: 0x0, symName: __ZNSt3__112basic_stringIcNS_11char_traitsIcEENS_9allocatorIcEEEC2B7v160006Ev, symObjAddr: 0x1C50, symBinAddr: 0x100006108, symSize: 0x4C }
  - { offsetInCU: 0xE676, offset: 0xE676, size: 0x8, addend: 0x0, symName: __ZNSt3__117__compressed_pairINS_12basic_stringIcNS_11char_traitsIcEENS_9allocatorIcEEE5__repES5_EC1B7v160006INS_18__default_init_tagESA_EEOT_OT0_, symObjAddr: 0x1C9C, symBinAddr: 0x100006154, symSize: 0x3C }
  - { offsetInCU: 0xE6CE, offset: 0xE6CE, size: 0x8, addend: 0x0, symName: __ZNSt3__117__compressed_pairINS_12basic_stringIcNS_11char_traitsIcEENS_9allocatorIcEEE5__repES5_EC2B7v160006INS_18__default_init_tagESA_EEOT_OT0_, symObjAddr: 0x1CD8, symBinAddr: 0x100006190, symSize: 0x3C }
  - { offsetInCU: 0xE726, offset: 0xE726, size: 0x8, addend: 0x0, symName: __ZNSt3__122__compressed_pair_elemINS_12basic_stringIcNS_11char_traitsIcEENS_9allocatorIcEEE5__repELi0ELb0EEC2B7v160006ENS_18__default_init_tagE, symObjAddr: 0x1D14, symBinAddr: 0x1000061CC, symSize: 0x14 }
  - { offsetInCU: 0xE75A, offset: 0xE75A, size: 0x8, addend: 0x0, symName: __ZNSt3__122__compressed_pair_elemINS_9allocatorIcEELi1ELb1EEC2B7v160006ENS_18__default_init_tagE, symObjAddr: 0x1D28, symBinAddr: 0x1000061E0, symSize: 0x2C }
  - { offsetInCU: 0xE78E, offset: 0xE78E, size: 0x8, addend: 0x0, symName: __ZNSt3__19allocatorIcEC2B7v160006Ev, symObjAddr: 0x1D54, symBinAddr: 0x10000620C, symSize: 0x2C }
  - { offsetInCU: 0xE7B8, offset: 0xE7B8, size: 0x8, addend: 0x0, symName: __ZNSt3__116__non_trivial_ifILb1ENS_9allocatorIcEEEC2B7v160006Ev, symObjAddr: 0x1D80, symBinAddr: 0x100006238, symSize: 0x14 }
  - { offsetInCU: 0xE882, offset: 0xE882, size: 0x8, addend: 0x0, symName: __ZNKSt3__113basic_istreamIcNS_11char_traitsIcEEE6sentrycvbB7v160006Ev, symObjAddr: 0x1D94, symBinAddr: 0x10000624C, symSize: 0x1C }
  - { offsetInCU: 0xE8A8, offset: 0xE8A8, size: 0x8, addend: 0x0, symName: __ZNSt3__112basic_stringIcNS_11char_traitsIcEENS_9allocatorIcEEE5clearB7v160006Ev, symObjAddr: 0x1DB0, symBinAddr: 0x100006268, symSize: 0x88 }
  - { offsetInCU: 0xE8D0, offset: 0xE8D0, size: 0x8, addend: 0x0, symName: __ZNKSt3__18ios_base5widthB7v160006Ev, symObjAddr: 0x1E38, symBinAddr: 0x1000062F0, symSize: 0x18 }
  - { offsetInCU: 0xE8F8, offset: 0xE8F8, size: 0x8, addend: 0x0, symName: __ZNKSt3__112basic_stringIcNS_11char_traitsIcEENS_9allocatorIcEEE8max_sizeB7v160006Ev, symObjAddr: 0x1E50, symBinAddr: 0x100006308, symSize: 0xAC }
  - { offsetInCU: 0xE94A, offset: 0xE94A, size: 0x8, addend: 0x0, symName: __ZNSt3__114numeric_limitsIlE3maxB7v160006Ev, symObjAddr: 0x1EFC, symBinAddr: 0x1000063B4, symSize: 0x14 }
  - { offsetInCU: 0xE95E, offset: 0xE95E, size: 0x8, addend: 0x0, symName: __ZNKSt3__19basic_iosIcNS_11char_traitsIcEEE5rdbufB7v160006Ev, symObjAddr: 0x1F3C, symBinAddr: 0x1000063F4, symSize: 0x24 }
  - { offsetInCU: 0xE986, offset: 0xE986, size: 0x8, addend: 0x0, symName: __ZNSt3__115basic_streambufIcNS_11char_traitsIcEEE5sgetcB7v160006Ev, symObjAddr: 0x1F60, symBinAddr: 0x100006418, symSize: 0x70 }
  - { offsetInCU: 0xE9AC, offset: 0xE9AC, size: 0x8, addend: 0x0, symName: __ZNSt3__111char_traitsIcE11eq_int_typeEii, symObjAddr: 0x1FD0, symBinAddr: 0x100006488, symSize: 0x28 }
  - { offsetInCU: 0xE9DD, offset: 0xE9DD, size: 0x8, addend: 0x0, symName: __ZNSt3__111char_traitsIcE3eofEv, symObjAddr: 0x1FF8, symBinAddr: 0x1000064B0, symSize: 0x8 }
  - { offsetInCU: 0xE9F1, offset: 0xE9F1, size: 0x8, addend: 0x0, symName: __ZNSt3__111char_traitsIcE12to_char_typeEi, symObjAddr: 0x2000, symBinAddr: 0x1000064B8, symSize: 0x18 }
  - { offsetInCU: 0xEA41, offset: 0xEA41, size: 0x8, addend: 0x0, symName: __ZNKSt3__15ctypeIcE2isB7v160006Ejc, symObjAddr: 0x2018, symBinAddr: 0x1000064D0, symSize: 0x7C }
  - { offsetInCU: 0xEA85, offset: 0xEA85, size: 0x8, addend: 0x0, symName: __ZNSt3__115basic_streambufIcNS_11char_traitsIcEEE6sbumpcB7v160006Ev, symObjAddr: 0x2094, symBinAddr: 0x10000654C, symSize: 0x78 }
  - { offsetInCU: 0xEAAB, offset: 0xEAAB, size: 0x8, addend: 0x0, symName: __ZNSt3__18ios_base5widthB7v160006El, symObjAddr: 0x210C, symBinAddr: 0x1000065C4, symSize: 0x2C }
  - { offsetInCU: 0xEAF1, offset: 0xEAF1, size: 0x8, addend: 0x0, symName: __ZNSt3__18ios_base18__setstate_nothrowB7v160006Ej, symObjAddr: 0x2138, symBinAddr: 0x1000065F0, symSize: 0x64 }
  - { offsetInCU: 0xEB26, offset: 0xEB26, size: 0x8, addend: 0x0, symName: __ZNKSt3__19basic_iosIcNS_11char_traitsIcEEE10exceptionsB7v160006Ev, symObjAddr: 0x219C, symBinAddr: 0x100006654, symSize: 0x24 }
  - { offsetInCU: 0xEB4C, offset: 0xEB4C, size: 0x8, addend: 0x0, symName: __ZNSt3__19basic_iosIcNS_11char_traitsIcEEE8setstateB7v160006Ej, symObjAddr: 0x21C0, symBinAddr: 0x100006678, symSize: 0x2C }
  - { offsetInCU: 0xEB81, offset: 0xEB81, size: 0x8, addend: 0x0, symName: __ZNSt3__111char_traitsIcE6assignERcRKc, symObjAddr: 0x21FC, symBinAddr: 0x1000066B4, symSize: 0x24 }
  - { offsetInCU: 0xEBB2, offset: 0xEBB2, size: 0x8, addend: 0x0, symName: __ZNSt3__112basic_stringIcNS_11char_traitsIcEENS_9allocatorIcEEE18__get_long_pointerB7v160006Ev, symObjAddr: 0x2220, symBinAddr: 0x1000066D8, symSize: 0x28 }
  - { offsetInCU: 0xEBD8, offset: 0xEBD8, size: 0x8, addend: 0x0, symName: __ZNSt3__112basic_stringIcNS_11char_traitsIcEENS_9allocatorIcEEE15__set_long_sizeB7v160006Em, symObjAddr: 0x2248, symBinAddr: 0x100006700, symSize: 0x38 }
  - { offsetInCU: 0xEC0D, offset: 0xEC0D, size: 0x8, addend: 0x0, symName: __ZNSt3__112basic_stringIcNS_11char_traitsIcEENS_9allocatorIcEEE19__get_short_pointerB7v160006Ev, symObjAddr: 0x2280, symBinAddr: 0x100006738, symSize: 0x28 }
  - { offsetInCU: 0xEC33, offset: 0xEC33, size: 0x8, addend: 0x0, symName: __ZNSt3__112basic_stringIcNS_11char_traitsIcEENS_9allocatorIcEEE16__set_short_sizeB7v160006Em, symObjAddr: 0x22A8, symBinAddr: 0x100006760, symSize: 0x78 }
  - { offsetInCU: 0xEC68, offset: 0xEC68, size: 0x8, addend: 0x0, symName: __ZNSt3__114pointer_traitsIPcE10pointer_toB7v160006ERc, symObjAddr: 0x2320, symBinAddr: 0x1000067D8, symSize: 0x14 }
  - { offsetInCU: 0xEC95, offset: 0xEC95, size: 0x8, addend: 0x0, symName: __ZNSt3__116allocator_traitsINS_9allocatorIcEEE8max_sizeB7v160006IS2_vEEmRKS2_, symObjAddr: 0x2334, symBinAddr: 0x1000067EC, symSize: 0x24 }
  - { offsetInCU: 0xECC3, offset: 0xECC3, size: 0x8, addend: 0x0, symName: __ZNKSt3__112basic_stringIcNS_11char_traitsIcEENS_9allocatorIcEEE7__allocB7v160006Ev, symObjAddr: 0x2358, symBinAddr: 0x100006810, symSize: 0x24 }
  - { offsetInCU: 0xECE9, offset: 0xECE9, size: 0x8, addend: 0x0, symName: __ZNSt3__114numeric_limitsImE3maxB7v160006Ev, symObjAddr: 0x237C, symBinAddr: 0x100006834, symSize: 0x14 }
  - { offsetInCU: 0xECFD, offset: 0xECFD, size: 0x8, addend: 0x0, symName: __ZNKSt3__19allocatorIcE8max_sizeB7v160006Ev, symObjAddr: 0x2390, symBinAddr: 0x100006848, symSize: 0x14 }
  - { offsetInCU: 0xED23, offset: 0xED23, size: 0x8, addend: 0x0, symName: __ZNKSt3__117__compressed_pairINS_12basic_stringIcNS_11char_traitsIcEENS_9allocatorIcEEE5__repES5_E6secondB7v160006Ev, symObjAddr: 0x23A4, symBinAddr: 0x10000685C, symSize: 0x24 }
  - { offsetInCU: 0xED49, offset: 0xED49, size: 0x8, addend: 0x0, symName: __ZNKSt3__122__compressed_pair_elemINS_9allocatorIcEELi1ELb1EE5__getB7v160006Ev, symObjAddr: 0x23C8, symBinAddr: 0x100006880, symSize: 0x14 }
  - { offsetInCU: 0xED6F, offset: 0xED6F, size: 0x8, addend: 0x0, symName: __ZNSt3__123__libcpp_numeric_limitsImLb1EE3maxB7v160006Ev, symObjAddr: 0x23DC, symBinAddr: 0x100006894, symSize: 0x8 }
  - { offsetInCU: 0xED83, offset: 0xED83, size: 0x8, addend: 0x0, symName: __ZNSt3__123__libcpp_numeric_limitsIlLb1EE3maxB7v160006Ev, symObjAddr: 0x23E4, symBinAddr: 0x10000689C, symSize: 0x8 }
  - { offsetInCU: 0xED97, offset: 0xED97, size: 0x8, addend: 0x0, symName: __ZNKSt3__18ios_base5rdbufB7v160006Ev, symObjAddr: 0x23EC, symBinAddr: 0x1000068A4, symSize: 0x18 }
  - { offsetInCU: 0xEDBD, offset: 0xEDBD, size: 0x8, addend: 0x0, symName: __ZNSt3__111char_traitsIcE11to_int_typeEc, symObjAddr: 0x2404, symBinAddr: 0x1000068BC, symSize: 0x14 }
  - { offsetInCU: 0xEDDF, offset: 0xEDDF, size: 0x8, addend: 0x0, symName: __Z7isasciii, symObjAddr: 0x2418, symBinAddr: 0x1000068D0, symSize: 0x24 }
  - { offsetInCU: 0xEE0C, offset: 0xEE0C, size: 0x8, addend: 0x0, symName: __ZNKSt3__18ios_base10exceptionsB7v160006Ev, symObjAddr: 0x243C, symBinAddr: 0x1000068F4, symSize: 0x18 }
  - { offsetInCU: 0xEE34, offset: 0xEE34, size: 0x8, addend: 0x0, symName: __ZNSt3__18ios_base8setstateB7v160006Ej, symObjAddr: 0x2454, symBinAddr: 0x10000690C, symSize: 0x34 }
  - { offsetInCU: 0xEE6B, offset: 0xEE6B, size: 0x8, addend: 0x0, symName: __ZNKSt3__19basic_iosIcNS_11char_traitsIcEEE4failB7v160006Ev, symObjAddr: 0x2488, symBinAddr: 0x100006940, symSize: 0x28 }
  - { offsetInCU: 0xEE91, offset: 0xEE91, size: 0x8, addend: 0x0, symName: __ZNKSt3__18ios_base4failB7v160006Ev, symObjAddr: 0x24B0, symBinAddr: 0x100006968, symSize: 0x28 }
  - { offsetInCU: 0xEEB9, offset: 0xEEB9, size: 0x8, addend: 0x0, symName: __ZNSt3__111char_traitsIcE6lengthEPKc, symObjAddr: 0x24D8, symBinAddr: 0x100006990, symSize: 0x34 }
  - { offsetInCU: 0xEEDC, offset: 0xEEDC, size: 0x8, addend: 0x0, symName: __ZNKSt3__112basic_stringIcNS_11char_traitsIcEENS_9allocatorIcEEE4sizeB7v160006Ev, symObjAddr: 0x250C, symBinAddr: 0x1000069C4, symSize: 0x54 }
  - { offsetInCU: 0xEF02, offset: 0xEF02, size: 0x8, addend: 0x0, symName: __ZNKSt3__112basic_stringIcNS_11char_traitsIcEENS_9allocatorIcEEE15__get_long_sizeB7v160006Ev, symObjAddr: 0x2584, symBinAddr: 0x100006A3C, symSize: 0x28 }
  - { offsetInCU: 0xEF28, offset: 0xEF28, size: 0x8, addend: 0x0, symName: __ZNKSt3__112basic_stringIcNS_11char_traitsIcEENS_9allocatorIcEEE16__get_short_sizeB7v160006Ev, symObjAddr: 0x25AC, symBinAddr: 0x100006A64, symSize: 0x34 }
  - { offsetInCU: 0xEF4E, offset: 0xEF4E, size: 0x8, addend: 0x0, symName: __ZNSt3__16vectorINS_5tupleIJdjNS_12basic_stringIcNS_11char_traitsIcEENS_9allocatorIcEEEEEEENS5_IS8_EEE9__end_capB7v160006Ev, symObjAddr: 0x25E0, symBinAddr: 0x100006A98, symSize: 0x28 }
  - { offsetInCU: 0xEF74, offset: 0xEF74, size: 0x8, addend: 0x0, symName: __ZNSt3__16vectorINS_5tupleIJdjNS_12basic_stringIcNS_11char_traitsIcEENS_9allocatorIcEEEEEEENS5_IS8_EEE22__construct_one_at_endB7v160006IJS8_EEEvDpOT_, symObjAddr: 0x2608, symBinAddr: 0x100006AC0, symSize: 0x90 }
  - { offsetInCU: 0xEFC3, offset: 0xEFC3, size: 0x8, addend: 0x0, symName: __ZNSt3__16vectorINS_5tupleIJdjNS_12basic_stringIcNS_11char_traitsIcEENS_9allocatorIcEEEEEEENS5_IS8_EEE21__push_back_slow_pathIS8_EEvOT_, symObjAddr: 0x2698, symBinAddr: 0x100006B50, symSize: 0xD8 }
  - { offsetInCU: 0xF021, offset: 0xF021, size: 0x8, addend: 0x0, symName: __ZNSt3__117__compressed_pairIPNS_5tupleIJdjNS_12basic_stringIcNS_11char_traitsIcEENS_9allocatorIcEEEEEEENS5_IS8_EEE5firstB7v160006Ev, symObjAddr: 0x2770, symBinAddr: 0x100006C28, symSize: 0x24 }
  - { offsetInCU: 0xF047, offset: 0xF047, size: 0x8, addend: 0x0, symName: __ZNSt3__122__compressed_pair_elemIPNS_5tupleIJdjNS_12basic_stringIcNS_11char_traitsIcEENS_9allocatorIcEEEEEEELi0ELb0EE5__getB7v160006Ev, symObjAddr: 0x2794, symBinAddr: 0x100006C4C, symSize: 0x14 }
  - { offsetInCU: 0xF086, offset: 0xF086, size: 0x8, addend: 0x0, symName: __ZNSt3__16vectorINS_5tupleIJdjNS_12basic_stringIcNS_11char_traitsIcEENS_9allocatorIcEEEEEEENS5_IS8_EEE21_ConstructTransactionC1B7v160006ERSA_m, symObjAddr: 0x27A8, symBinAddr: 0x100006C60, symSize: 0x3C }
  - { offsetInCU: 0xF0CE, offset: 0xF0CE, size: 0x8, addend: 0x0, symName: __ZNSt3__116allocator_traitsINS_9allocatorINS_5tupleIJdjNS_12basic_stringIcNS_11char_traitsIcEENS1_IcEEEEEEEEEE9constructB7v160006IS8_JS8_EvEEvRS9_PT_DpOT0_, symObjAddr: 0x27E4, symBinAddr: 0x100006C9C, symSize: 0x34 }
  - { offsetInCU: 0xF125, offset: 0xF125, size: 0x8, addend: 0x0, symName: __ZNSt3__16vectorINS_5tupleIJdjNS_12basic_stringIcNS_11char_traitsIcEENS_9allocatorIcEEEEEEENS5_IS8_EEE21_ConstructTransactionD1B7v160006Ev, symObjAddr: 0x2818, symBinAddr: 0x100006CD0, symSize: 0x2C }
  - { offsetInCU: 0xF14F, offset: 0xF14F, size: 0x8, addend: 0x0, symName: __ZNSt3__16vectorINS_5tupleIJdjNS_12basic_stringIcNS_11char_traitsIcEENS_9allocatorIcEEEEEEENS5_IS8_EEE21_ConstructTransactionC2B7v160006ERSA_m, symObjAddr: 0x2844, symBinAddr: 0x100006CFC, symSize: 0x4C }
  - { offsetInCU: 0xF197, offset: 0xF197, size: 0x8, addend: 0x0, symName: __ZNSt3__19allocatorINS_5tupleIJdjNS_12basic_stringIcNS_11char_traitsIcEENS0_IcEEEEEEEE9constructB7v160006IS7_JS7_EEEvPT_DpOT0_, symObjAddr: 0x2890, symBinAddr: 0x100006D48, symSize: 0x30 }
  - { offsetInCU: 0xF1ED, offset: 0xF1ED, size: 0x8, addend: 0x0, symName: __ZNSt3__15tupleIJdjNS_12basic_stringIcNS_11char_traitsIcEENS_9allocatorIcEEEEEEC1EOS7_, symObjAddr: 0x28C0, symBinAddr: 0x100006D78, symSize: 0x34 }
  - { offsetInCU: 0xF222, offset: 0xF222, size: 0x8, addend: 0x0, symName: __ZNSt3__15tupleIJdjNS_12basic_stringIcNS_11char_traitsIcEENS_9allocatorIcEEEEEEC2EOS7_, symObjAddr: 0x28F4, symBinAddr: 0x100006DAC, symSize: 0x34 }
  - { offsetInCU: 0xF257, offset: 0xF257, size: 0x8, addend: 0x0, symName: __ZNSt3__112__tuple_implINS_15__tuple_indicesIJLm0ELm1ELm2EEEEJdjNS_12basic_stringIcNS_11char_traitsIcEENS_9allocatorIcEEEEEEC1EOS9_, symObjAddr: 0x2928, symBinAddr: 0x100006DE0, symSize: 0x34 }
  - { offsetInCU: 0xF28C, offset: 0xF28C, size: 0x8, addend: 0x0, symName: __ZNSt3__112__tuple_implINS_15__tuple_indicesIJLm0ELm1ELm2EEEEJdjNS_12basic_stringIcNS_11char_traitsIcEENS_9allocatorIcEEEEEEC2EOS9_, symObjAddr: 0x295C, symBinAddr: 0x100006E14, symSize: 0x54 }
  - { offsetInCU: 0xF2C1, offset: 0xF2C1, size: 0x8, addend: 0x0, symName: __ZNSt3__112__tuple_leafILm2ENS_12basic_stringIcNS_11char_traitsIcEENS_9allocatorIcEEEELb0EEC2EOS7_, symObjAddr: 0x29B0, symBinAddr: 0x100006E68, symSize: 0x34 }
  - { offsetInCU: 0xF2FA, offset: 0xF2FA, size: 0x8, addend: 0x0, symName: __ZNSt3__16vectorINS_5tupleIJdjNS_12basic_stringIcNS_11char_traitsIcEENS_9allocatorIcEEEEEEENS5_IS8_EEE21_ConstructTransactionD2B7v160006Ev, symObjAddr: 0x29E4, symBinAddr: 0x100006E9C, symSize: 0x20 }
  - { offsetInCU: 0xF324, offset: 0xF324, size: 0x8, addend: 0x0, symName: __ZNKSt3__16vectorINS_5tupleIJdjNS_12basic_stringIcNS_11char_traitsIcEENS_9allocatorIcEEEEEEENS5_IS8_EEE11__recommendB7v160006Em, symObjAddr: 0x2A04, symBinAddr: 0x100006EBC, symSize: 0xB4 }
  - { offsetInCU: 0xF379, offset: 0xF379, size: 0x8, addend: 0x0, symName: __ZNSt3__114__split_bufferINS_5tupleIJdjNS_12basic_stringIcNS_11char_traitsIcEENS_9allocatorIcEEEEEEERNS5_IS8_EEEC1EmmSA_, symObjAddr: 0x2AB8, symBinAddr: 0x100006F70, symSize: 0x44 }
  - { offsetInCU: 0xF3CF, offset: 0xF3CF, size: 0x8, addend: 0x0, symName: __ZNSt3__114__split_bufferINS_5tupleIJdjNS_12basic_stringIcNS_11char_traitsIcEENS_9allocatorIcEEEEEEERNS5_IS8_EEED1Ev, symObjAddr: 0x2C14, symBinAddr: 0x1000070CC, symSize: 0x2C }
  - { offsetInCU: 0xF3FB, offset: 0xF3FB, size: 0x8, addend: 0x0, symName: __ZNKSt3__16vectorINS_5tupleIJdjNS_12basic_stringIcNS_11char_traitsIcEENS_9allocatorIcEEEEEEENS5_IS8_EEE8max_sizeEv, symObjAddr: 0x2C40, symBinAddr: 0x1000070F8, symSize: 0x60 }
  - { offsetInCU: 0xF423, offset: 0xF423, size: 0x8, addend: 0x0, symName: __ZNKSt3__16vectorINS_5tupleIJdjNS_12basic_stringIcNS_11char_traitsIcEENS_9allocatorIcEEEEEEENS5_IS8_EEE20__throw_length_errorB7v160006Ev, symObjAddr: 0x2CA0, symBinAddr: 0x100007158, symSize: 0x1C }
  - { offsetInCU: 0xF453, offset: 0xF453, size: 0x8, addend: 0x0, symName: __ZNSt3__116allocator_traitsINS_9allocatorINS_5tupleIJdjNS_12basic_stringIcNS_11char_traitsIcEENS1_IcEEEEEEEEEE8max_sizeB7v160006IS9_vEEmRKS9_, symObjAddr: 0x2D14, symBinAddr: 0x1000071CC, symSize: 0x24 }
  - { offsetInCU: 0xF481, offset: 0xF481, size: 0x8, addend: 0x0, symName: __ZNKSt3__16vectorINS_5tupleIJdjNS_12basic_stringIcNS_11char_traitsIcEENS_9allocatorIcEEEEEEENS5_IS8_EEE7__allocB7v160006Ev, symObjAddr: 0x2D38, symBinAddr: 0x1000071F0, symSize: 0x28 }
  - { offsetInCU: 0xF4BB, offset: 0xF4BB, size: 0x8, addend: 0x0, symName: __ZNKSt3__16__lessImmEclB7v160006ERKmS3_, symObjAddr: 0x2DB4, symBinAddr: 0x10000726C, symSize: 0x34 }
  - { offsetInCU: 0xF4FD, offset: 0xF4FD, size: 0x8, addend: 0x0, symName: __ZNKSt3__19allocatorINS_5tupleIJdjNS_12basic_stringIcNS_11char_traitsIcEENS0_IcEEEEEEEE8max_sizeB7v160006Ev, symObjAddr: 0x2DE8, symBinAddr: 0x1000072A0, symSize: 0x18 }
  - { offsetInCU: 0xF523, offset: 0xF523, size: 0x8, addend: 0x0, symName: __ZNKSt3__117__compressed_pairIPNS_5tupleIJdjNS_12basic_stringIcNS_11char_traitsIcEENS_9allocatorIcEEEEEEENS5_IS8_EEE6secondB7v160006Ev, symObjAddr: 0x2E00, symBinAddr: 0x1000072B8, symSize: 0x24 }
  - { offsetInCU: 0xF549, offset: 0xF549, size: 0x8, addend: 0x0, symName: __ZNKSt3__122__compressed_pair_elemINS_9allocatorINS_5tupleIJdjNS_12basic_stringIcNS_11char_traitsIcEENS1_IcEEEEEEEEELi1ELb1EE5__getB7v160006Ev, symObjAddr: 0x2E24, symBinAddr: 0x1000072DC, symSize: 0x14 }
  - { offsetInCU: 0xF56F, offset: 0xF56F, size: 0x8, addend: 0x0, symName: __ZNSt12length_errorC1B7v160006EPKc, symObjAddr: 0x2E9C, symBinAddr: 0x100007354, symSize: 0x34 }
  - { offsetInCU: 0xF5A7, offset: 0xF5A7, size: 0x8, addend: 0x0, symName: __ZNSt12length_errorC2B7v160006EPKc, symObjAddr: 0x2ED0, symBinAddr: 0x100007388, symSize: 0x4C }
  - { offsetInCU: 0xF5DF, offset: 0xF5DF, size: 0x8, addend: 0x0, symName: __ZNSt3__114__split_bufferINS_5tupleIJdjNS_12basic_stringIcNS_11char_traitsIcEENS_9allocatorIcEEEEEEERNS5_IS8_EEEC2EmmSA_, symObjAddr: 0x2F70, symBinAddr: 0x100007428, symSize: 0xE0 }
  - { offsetInCU: 0xF652, offset: 0xF652, size: 0x8, addend: 0x0, symName: __ZNSt3__117__compressed_pairIPNS_5tupleIJdjNS_12basic_stringIcNS_11char_traitsIcEENS_9allocatorIcEEEEEEERNS5_IS8_EEEC1B7v160006IDnSB_EEOT_OT0_, symObjAddr: 0x3050, symBinAddr: 0x100007508, symSize: 0x3C }
  - { offsetInCU: 0xF6AA, offset: 0xF6AA, size: 0x8, addend: 0x0, symName: __ZNSt3__114__split_bufferINS_5tupleIJdjNS_12basic_stringIcNS_11char_traitsIcEENS_9allocatorIcEEEEEEERNS5_IS8_EEE7__allocB7v160006Ev, symObjAddr: 0x30CC, symBinAddr: 0x100007584, symSize: 0x28 }
  - { offsetInCU: 0xF6D0, offset: 0xF6D0, size: 0x8, addend: 0x0, symName: __ZNSt3__114__split_bufferINS_5tupleIJdjNS_12basic_stringIcNS_11char_traitsIcEENS_9allocatorIcEEEEEEERNS5_IS8_EEE9__end_capB7v160006Ev, symObjAddr: 0x30F4, symBinAddr: 0x1000075AC, symSize: 0x28 }
  - { offsetInCU: 0xF6F6, offset: 0xF6F6, size: 0x8, addend: 0x0, symName: __ZNSt3__117__compressed_pairIPNS_5tupleIJdjNS_12basic_stringIcNS_11char_traitsIcEENS_9allocatorIcEEEEEEERNS5_IS8_EEEC2B7v160006IDnSB_EEOT_OT0_, symObjAddr: 0x311C, symBinAddr: 0x1000075D4, symSize: 0x48 }
  - { offsetInCU: 0xF74E, offset: 0xF74E, size: 0x8, addend: 0x0, symName: __ZNSt3__122__compressed_pair_elemIRNS_9allocatorINS_5tupleIJdjNS_12basic_stringIcNS_11char_traitsIcEENS1_IcEEEEEEEEELi1ELb0EEC2B7v160006ISA_vEEOT_, symObjAddr: 0x3164, symBinAddr: 0x10000761C, symSize: 0x20 }
  - { offsetInCU: 0xF790, offset: 0xF790, size: 0x8, addend: 0x0, symName: __ZNSt3__19allocatorINS_5tupleIJdjNS_12basic_stringIcNS_11char_traitsIcEENS0_IcEEEEEEEE8allocateB7v160006Em, symObjAddr: 0x3184, symBinAddr: 0x10000763C, symSize: 0x5C }
  - { offsetInCU: 0xF7C4, offset: 0xF7C4, size: 0x8, addend: 0x0, symName: __ZNSt3__117__compressed_pairIPNS_5tupleIJdjNS_12basic_stringIcNS_11char_traitsIcEENS_9allocatorIcEEEEEEERNS5_IS8_EEE6secondB7v160006Ev, symObjAddr: 0x3260, symBinAddr: 0x100007718, symSize: 0x28 }
  - { offsetInCU: 0xF7EA, offset: 0xF7EA, size: 0x8, addend: 0x0, symName: __ZNSt3__122__compressed_pair_elemIRNS_9allocatorINS_5tupleIJdjNS_12basic_stringIcNS_11char_traitsIcEENS1_IcEEEEEEEEELi1ELb0EE5__getB7v160006Ev, symObjAddr: 0x3288, symBinAddr: 0x100007740, symSize: 0x18 }
  - { offsetInCU: 0xF810, offset: 0xF810, size: 0x8, addend: 0x0, symName: __ZNSt3__117__compressed_pairIPNS_5tupleIJdjNS_12basic_stringIcNS_11char_traitsIcEENS_9allocatorIcEEEEEEERNS5_IS8_EEE5firstB7v160006Ev, symObjAddr: 0x32A0, symBinAddr: 0x100007758, symSize: 0x24 }
  - { offsetInCU: 0xF836, offset: 0xF836, size: 0x8, addend: 0x0, symName: __ZNSt3__116reverse_iteratorIPNS_5tupleIJdjNS_12basic_stringIcNS_11char_traitsIcEENS_9allocatorIcEEEEEEEEC1B7v160006ES9_, symObjAddr: 0x33F0, symBinAddr: 0x1000078A8, symSize: 0x34 }
  - { offsetInCU: 0xF86E, offset: 0xF86E, size: 0x8, addend: 0x0, symName: __ZNKSt3__116reverse_iteratorIPNS_5tupleIJdjNS_12basic_stringIcNS_11char_traitsIcEENS_9allocatorIcEEEEEEEE4baseB7v160006Ev, symObjAddr: 0x3424, symBinAddr: 0x1000078DC, symSize: 0x18 }
  - { offsetInCU: 0xF894, offset: 0xF894, size: 0x8, addend: 0x0, symName: __ZNKSt3__16vectorINS_5tupleIJdjNS_12basic_stringIcNS_11char_traitsIcEENS_9allocatorIcEEEEEEENS5_IS8_EEE14__annotate_newB7v160006Em, symObjAddr: 0x3478, symBinAddr: 0x100007930, symSize: 0xC8 }
  - { offsetInCU: 0xF8C9, offset: 0xF8C9, size: 0x8, addend: 0x0, symName: __ZNSt3__129_AllocatorDestroyRangeReverseINS_9allocatorINS_5tupleIJdjNS_12basic_stringIcNS_11char_traitsIcEENS1_IcEEEEEEEEENS_16reverse_iteratorIPS8_EEEC1B7v160006ERS9_RSC_SF_, symObjAddr: 0x359C, symBinAddr: 0x100007A54, symSize: 0x44 }
  - { offsetInCU: 0xF920, offset: 0xF920, size: 0x8, addend: 0x0, symName: __ZNKSt3__116reverse_iteratorIPNS_5tupleIJdjNS_12basic_stringIcNS_11char_traitsIcEENS_9allocatorIcEEEEEEEEdeB7v160006Ev, symObjAddr: 0x364C, symBinAddr: 0x100007B04, symSize: 0x28 }
  - { offsetInCU: 0xF954, offset: 0xF954, size: 0x8, addend: 0x0, symName: __ZNSt3__116reverse_iteratorIPNS_5tupleIJdjNS_12basic_stringIcNS_11char_traitsIcEENS_9allocatorIcEEEEEEEEppB7v160006Ev, symObjAddr: 0x3674, symBinAddr: 0x100007B2C, symSize: 0x20 }
  - { offsetInCU: 0xF97A, offset: 0xF97A, size: 0x8, addend: 0x0, symName: __ZNSt3__128__exception_guard_exceptionsINS_29_AllocatorDestroyRangeReverseINS_9allocatorINS_5tupleIJdjNS_12basic_stringIcNS_11char_traitsIcEENS2_IcEEEEEEEEENS_16reverse_iteratorIPS9_EEEEE10__completeB7v160006Ev, symObjAddr: 0x3694, symBinAddr: 0x100007B4C, symSize: 0x1C }
  - { offsetInCU: 0xF9A0, offset: 0xF9A0, size: 0x8, addend: 0x0, symName: __ZNSt3__128__exception_guard_exceptionsINS_29_AllocatorDestroyRangeReverseINS_9allocatorINS_5tupleIJdjNS_12basic_stringIcNS_11char_traitsIcEENS2_IcEEEEEEEEENS_16reverse_iteratorIPS9_EEEEED1B7v160006Ev, symObjAddr: 0x36B0, symBinAddr: 0x100007B68, symSize: 0x2C }
  - { offsetInCU: 0xF9CA, offset: 0xF9CA, size: 0x8, addend: 0x0, symName: __ZNSt3__128__exception_guard_exceptionsINS_29_AllocatorDestroyRangeReverseINS_9allocatorINS_5tupleIJdjNS_12basic_stringIcNS_11char_traitsIcEENS2_IcEEEEEEEEENS_16reverse_iteratorIPS9_EEEEEC1B7v160006ESE_, symObjAddr: 0x36DC, symBinAddr: 0x100007B94, symSize: 0x34 }
  - { offsetInCU: 0xFA03, offset: 0xFA03, size: 0x8, addend: 0x0, symName: __ZNSt3__128__exception_guard_exceptionsINS_29_AllocatorDestroyRangeReverseINS_9allocatorINS_5tupleIJdjNS_12basic_stringIcNS_11char_traitsIcEENS2_IcEEEEEEEEENS_16reverse_iteratorIPS9_EEEEEC2B7v160006ESE_, symObjAddr: 0x3710, symBinAddr: 0x100007BC8, symSize: 0x30 }
  - { offsetInCU: 0xFA3C, offset: 0xFA3C, size: 0x8, addend: 0x0, symName: __ZNSt3__129_AllocatorDestroyRangeReverseINS_9allocatorINS_5tupleIJdjNS_12basic_stringIcNS_11char_traitsIcEENS1_IcEEEEEEEEENS_16reverse_iteratorIPS8_EEEC2B7v160006ERS9_RSC_SF_, symObjAddr: 0x3740, symBinAddr: 0x100007BF8, symSize: 0x38 }
  - { offsetInCU: 0xFA98, offset: 0xFA98, size: 0x8, addend: 0x0, symName: __ZNSt3__119__to_address_helperINS_16reverse_iteratorIPNS_5tupleIJdjNS_12basic_stringIcNS_11char_traitsIcEENS_9allocatorIcEEEEEEEEEvE6__callB7v160006ERKSB_, symObjAddr: 0x3778, symBinAddr: 0x100007C30, symSize: 0x38 }
  - { offsetInCU: 0xFABB, offset: 0xFABB, size: 0x8, addend: 0x0, symName: __ZNKSt3__116reverse_iteratorIPNS_5tupleIJdjNS_12basic_stringIcNS_11char_traitsIcEENS_9allocatorIcEEEEEEEEptB7v160006Ev, symObjAddr: 0x37B0, symBinAddr: 0x100007C68, symSize: 0x24 }
  - { offsetInCU: 0xFAE1, offset: 0xFAE1, size: 0x8, addend: 0x0, symName: __ZNSt3__128__exception_guard_exceptionsINS_29_AllocatorDestroyRangeReverseINS_9allocatorINS_5tupleIJdjNS_12basic_stringIcNS_11char_traitsIcEENS2_IcEEEEEEEEENS_16reverse_iteratorIPS9_EEEEED2B7v160006Ev, symObjAddr: 0x37D4, symBinAddr: 0x100007C8C, symSize: 0x50 }
  - { offsetInCU: 0xFB0B, offset: 0xFB0B, size: 0x8, addend: 0x0, symName: __ZNKSt3__129_AllocatorDestroyRangeReverseINS_9allocatorINS_5tupleIJdjNS_12basic_stringIcNS_11char_traitsIcEENS1_IcEEEEEEEEENS_16reverse_iteratorIPS8_EEEclB7v160006Ev, symObjAddr: 0x3824, symBinAddr: 0x100007CDC, symSize: 0xB4 }
  - { offsetInCU: 0xFB32, offset: 0xFB32, size: 0x8, addend: 0x0, symName: __ZNSt3__116reverse_iteratorINS0_IPNS_5tupleIJdjNS_12basic_stringIcNS_11char_traitsIcEENS_9allocatorIcEEEEEEEEEEC1B7v160006ESA_, symObjAddr: 0x3948, symBinAddr: 0x100007E00, symSize: 0x3C }
  - { offsetInCU: 0xFB6A, offset: 0xFB6A, size: 0x8, addend: 0x0, symName: __ZNSt3__116reverse_iteratorINS0_IPNS_5tupleIJdjNS_12basic_stringIcNS_11char_traitsIcEENS_9allocatorIcEEEEEEEEEEppB7v160006Ev, symObjAddr: 0x3A08, symBinAddr: 0x100007EC0, symSize: 0x30 }
  - { offsetInCU: 0xFB90, offset: 0xFB90, size: 0x8, addend: 0x0, symName: __ZNKSt3__116reverse_iteratorINS0_IPNS_5tupleIJdjNS_12basic_stringIcNS_11char_traitsIcEENS_9allocatorIcEEEEEEEEEE4baseB7v160006Ev, symObjAddr: 0x3A38, symBinAddr: 0x100007EF0, symSize: 0x24 }
  - { offsetInCU: 0xFBBB, offset: 0xFBBB, size: 0x8, addend: 0x0, symName: __ZNSt3__119__to_address_helperINS_16reverse_iteratorINS1_IPNS_5tupleIJdjNS_12basic_stringIcNS_11char_traitsIcEENS_9allocatorIcEEEEEEEEEEEvE6__callB7v160006ERKSC_, symObjAddr: 0x3A5C, symBinAddr: 0x100007F14, symSize: 0x38 }
  - { offsetInCU: 0xFBDE, offset: 0xFBDE, size: 0x8, addend: 0x0, symName: __ZNKSt3__116reverse_iteratorINS0_IPNS_5tupleIJdjNS_12basic_stringIcNS_11char_traitsIcEENS_9allocatorIcEEEEEEEEEEptB7v160006Ev, symObjAddr: 0x3A94, symBinAddr: 0x100007F4C, symSize: 0x24 }
  - { offsetInCU: 0xFC04, offset: 0xFC04, size: 0x8, addend: 0x0, symName: __ZNKSt3__116reverse_iteratorINS0_IPNS_5tupleIJdjNS_12basic_stringIcNS_11char_traitsIcEENS_9allocatorIcEEEEEEEEEEdeB7v160006Ev, symObjAddr: 0x3AB8, symBinAddr: 0x100007F70, symSize: 0x34 }
  - { offsetInCU: 0xFC38, offset: 0xFC38, size: 0x8, addend: 0x0, symName: __ZNSt3__116reverse_iteratorIPNS_5tupleIJdjNS_12basic_stringIcNS_11char_traitsIcEENS_9allocatorIcEEEEEEEEmmB7v160006Ev, symObjAddr: 0x3AEC, symBinAddr: 0x100007FA4, symSize: 0x20 }
  - { offsetInCU: 0xFC5E, offset: 0xFC5E, size: 0x8, addend: 0x0, symName: __ZNSt3__116reverse_iteratorINS0_IPNS_5tupleIJdjNS_12basic_stringIcNS_11char_traitsIcEENS_9allocatorIcEEEEEEEEEEC2B7v160006ESA_, symObjAddr: 0x3B0C, symBinAddr: 0x100007FC4, symSize: 0x2C }
  - { offsetInCU: 0xFC96, offset: 0xFC96, size: 0x8, addend: 0x0, symName: __ZNSt3__116reverse_iteratorIPNS_5tupleIJdjNS_12basic_stringIcNS_11char_traitsIcEENS_9allocatorIcEEEEEEEEC2B7v160006ES9_, symObjAddr: 0x3B38, symBinAddr: 0x100007FF0, symSize: 0x28 }
  - { offsetInCU: 0xFCCE, offset: 0xFCCE, size: 0x8, addend: 0x0, symName: __ZNSt3__114__split_bufferINS_5tupleIJdjNS_12basic_stringIcNS_11char_traitsIcEENS_9allocatorIcEEEEEEERNS5_IS8_EEED2Ev, symObjAddr: 0x3B60, symBinAddr: 0x100008018, symSize: 0x8C }
  - { offsetInCU: 0xFCFA, offset: 0xFCFA, size: 0x8, addend: 0x0, symName: __ZNSt3__114__split_bufferINS_5tupleIJdjNS_12basic_stringIcNS_11char_traitsIcEENS_9allocatorIcEEEEEEERNS5_IS8_EEE5clearB7v160006Ev, symObjAddr: 0x3BEC, symBinAddr: 0x1000080A4, symSize: 0x28 }
  - { offsetInCU: 0xFD20, offset: 0xFD20, size: 0x8, addend: 0x0, symName: __ZNKSt3__114__split_bufferINS_5tupleIJdjNS_12basic_stringIcNS_11char_traitsIcEENS_9allocatorIcEEEEEEERNS5_IS8_EEE8capacityB7v160006Ev, symObjAddr: 0x3C14, symBinAddr: 0x1000080CC, symSize: 0x40 }
  - { offsetInCU: 0xFD46, offset: 0xFD46, size: 0x8, addend: 0x0, symName: __ZNSt3__114__split_bufferINS_5tupleIJdjNS_12basic_stringIcNS_11char_traitsIcEENS_9allocatorIcEEEEEEERNS5_IS8_EEE17__destruct_at_endB7v160006EPS8_, symObjAddr: 0x3C54, symBinAddr: 0x10000810C, symSize: 0x2C }
  - { offsetInCU: 0xFD7A, offset: 0xFD7A, size: 0x8, addend: 0x0, symName: __ZNSt3__114__split_bufferINS_5tupleIJdjNS_12basic_stringIcNS_11char_traitsIcEENS_9allocatorIcEEEEEEERNS5_IS8_EEE17__destruct_at_endB7v160006EPS8_NS_17integral_constantIbLb0EEE, symObjAddr: 0x3C80, symBinAddr: 0x100008138, symSize: 0x80 }
  - { offsetInCU: 0xFDBA, offset: 0xFDBA, size: 0x8, addend: 0x0, symName: __ZNKSt3__114__split_bufferINS_5tupleIJdjNS_12basic_stringIcNS_11char_traitsIcEENS_9allocatorIcEEEEEEERNS5_IS8_EEE9__end_capB7v160006Ev, symObjAddr: 0x3D00, symBinAddr: 0x1000081B8, symSize: 0x28 }
  - { offsetInCU: 0xFDE0, offset: 0xFDE0, size: 0x8, addend: 0x0, symName: __ZNKSt3__117__compressed_pairIPNS_5tupleIJdjNS_12basic_stringIcNS_11char_traitsIcEENS_9allocatorIcEEEEEEERNS5_IS8_EEE5firstB7v160006Ev, symObjAddr: 0x3D28, symBinAddr: 0x1000081E0, symSize: 0x24 }
  - { offsetInCU: 0xFE06, offset: 0xFE06, size: 0x8, addend: 0x0, symName: __ZNSt3__16vectorINS_5tupleIJdjNS_12basic_stringIcNS_11char_traitsIcEENS_9allocatorIcEEEEEEENS5_IS8_EEE11__make_iterB7v160006EPS8_, symObjAddr: 0x3D4C, symBinAddr: 0x100008204, symSize: 0x34 }
  - { offsetInCU: 0xFE3B, offset: 0xFE3B, size: 0x8, addend: 0x0, symName: __ZNSt3__111__wrap_iterIPNS_5tupleIJdjNS_12basic_stringIcNS_11char_traitsIcEENS_9allocatorIcEEEEEEEEC1B7v160006EPKvS9_, symObjAddr: 0x3D80, symBinAddr: 0x100008238, symSize: 0x3C }
  - { offsetInCU: 0xFE81, offset: 0xFE81, size: 0x8, addend: 0x0, symName: __ZNSt3__111__wrap_iterIPNS_5tupleIJdjNS_12basic_stringIcNS_11char_traitsIcEENS_9allocatorIcEEEEEEEEC2B7v160006EPKvS9_, symObjAddr: 0x3DBC, symBinAddr: 0x100008274, symSize: 0x24 }
  - { offsetInCU: 0xFEC7, offset: 0xFEC7, size: 0x8, addend: 0x0, symName: __ZNKSt3__19basic_iosIcNS_11char_traitsIcEEE5widenB7v160006Ec, symObjAddr: 0x3DE0, symBinAddr: 0x100008298, symSize: 0x84 }
  - { offsetInCU: 0xFEFE, offset: 0xFEFE, size: 0x8, addend: 0x0, symName: __ZNKSt3__15ctypeIcE5widenB7v160006Ec, symObjAddr: 0x3E64, symBinAddr: 0x10000831C, symSize: 0x38 }
  - { offsetInCU: 0xFF42, offset: 0xFF42, size: 0x8, addend: 0x0, symName: __ZNSt3__116_UnwrapAlgPolicyIRNS_6__lessINS_5tupleIJdjNS_12basic_stringIcNS_11char_traitsIcEENS_9allocatorIcEEEEEEES9_EEE10__get_compB7v160006ESB_, symObjAddr: 0x405C, symBinAddr: 0x100008514, symSize: 0x14 }
  - { offsetInCU: 0xFF65, offset: 0xFF65, size: 0x8, addend: 0x0, symName: __ZNKSt3__16__lessINS_5tupleIJdjNS_12basic_stringIcNS_11char_traitsIcEENS_9allocatorIcEEEEEEES8_EclB7v160006ERKS8_SB_, symObjAddr: 0x4774, symBinAddr: 0x100008C2C, symSize: 0x34 }
  - { offsetInCU: 0xFFA7, offset: 0xFFA7, size: 0x8, addend: 0x0, symName: __ZNSt3__18_IterOpsINS_17_ClassicAlgPolicyEE9iter_swapB7v160006IRPNS_5tupleIJdjNS_12basic_stringIcNS_11char_traitsIcEENS_9allocatorIcEEEEEEESD_EEvOT_OT0_, symObjAddr: 0x47A8, symBinAddr: 0x100008C60, symSize: 0x34 }
  - { offsetInCU: 0xFFEF, offset: 0xFFEF, size: 0x8, addend: 0x0, symName: __ZNSt3__112__tuple_lessILm3EEclB7v160006INS_5tupleIJdjNS_12basic_stringIcNS_11char_traitsIcEENS_9allocatorIcEEEEEEESA_EEbRKT_RKT0_, symObjAddr: 0x5020, symBinAddr: 0x1000094D8, symSize: 0xD8 }
  - { offsetInCU: 0x10059, offset: 0x10059, size: 0x8, addend: 0x0, symName: __ZNSt3__112__tuple_lessILm2EEclB7v160006INS_5tupleIJdjNS_12basic_stringIcNS_11char_traitsIcEENS_9allocatorIcEEEEEEESA_EEbRKT_RKT0_, symObjAddr: 0x511C, symBinAddr: 0x1000095D4, symSize: 0xDC }
  - { offsetInCU: 0x100BE, offset: 0x100BE, size: 0x8, addend: 0x0, symName: __ZNKSt3__112__tuple_leafILm0EdLb0EE3getB7v160006Ev, symObjAddr: 0x51F8, symBinAddr: 0x1000096B0, symSize: 0x14 }
  - { offsetInCU: 0x100E9, offset: 0x100E9, size: 0x8, addend: 0x0, symName: __ZNSt3__112__tuple_lessILm1EEclB7v160006INS_5tupleIJdjNS_12basic_stringIcNS_11char_traitsIcEENS_9allocatorIcEEEEEEESA_EEbRKT_RKT0_, symObjAddr: 0x5234, symBinAddr: 0x1000096EC, symSize: 0xCC }
  - { offsetInCU: 0x1014E, offset: 0x1014E, size: 0x8, addend: 0x0, symName: __ZNKSt3__112__tuple_leafILm1EjLb0EE3getB7v160006Ev, symObjAddr: 0x5300, symBinAddr: 0x1000097B8, symSize: 0x14 }
  - { offsetInCU: 0x10179, offset: 0x10179, size: 0x8, addend: 0x0, symName: __ZNSt3__112__tuple_lessILm0EEclB7v160006INS_5tupleIJdjNS_12basic_stringIcNS_11char_traitsIcEENS_9allocatorIcEEEEEEESA_EEbRKT_RKT0_, symObjAddr: 0x5374, symBinAddr: 0x10000982C, symSize: 0x20 }
  - { offsetInCU: 0x101C7, offset: 0x101C7, size: 0x8, addend: 0x0, symName: __ZNKSt3__112basic_stringIcNS_11char_traitsIcEENS_9allocatorIcEEE7compareB7v160006ERKS5_, symObjAddr: 0x5394, symBinAddr: 0x10000984C, symSize: 0x4C }
  - { offsetInCU: 0x101FE, offset: 0x101FE, size: 0x8, addend: 0x0, symName: __ZNKSt3__112basic_stringIcNS_11char_traitsIcEENS_9allocatorIcEEE7compareINS_17basic_string_viewIcS2_EEEENS_9enable_ifIXsr33__can_be_converted_to_string_viewIcS2_T_EE5valueEiE4typeERKSA_, symObjAddr: 0x53E0, symBinAddr: 0x100009898, symSize: 0x12C }
  - { offsetInCU: 0x1027B, offset: 0x1027B, size: 0x8, addend: 0x0, symName: __ZNKSt3__112basic_stringIcNS_11char_traitsIcEENS_9allocatorIcEEEcvNS_17basic_string_viewIcS2_EEB7v160006Ev, symObjAddr: 0x550C, symBinAddr: 0x1000099C4, symSize: 0x50 }
  - { offsetInCU: 0x102A1, offset: 0x102A1, size: 0x8, addend: 0x0, symName: __ZNKSt3__117basic_string_viewIcNS_11char_traitsIcEEE4sizeB7v160006Ev, symObjAddr: 0x555C, symBinAddr: 0x100009A14, symSize: 0x18 }
  - { offsetInCU: 0x102C7, offset: 0x102C7, size: 0x8, addend: 0x0, symName: __ZNSt3__111char_traitsIcE7compareEPKcS3_m, symObjAddr: 0x5574, symBinAddr: 0x100009A2C, symSize: 0x6C }
  - { offsetInCU: 0x10306, offset: 0x10306, size: 0x8, addend: 0x0, symName: __ZNKSt3__112basic_stringIcNS_11char_traitsIcEENS_9allocatorIcEEE4dataB7v160006Ev, symObjAddr: 0x55E0, symBinAddr: 0x100009A98, symSize: 0x28 }
  - { offsetInCU: 0x1032C, offset: 0x1032C, size: 0x8, addend: 0x0, symName: __ZNKSt3__117basic_string_viewIcNS_11char_traitsIcEEE4dataB7v160006Ev, symObjAddr: 0x5608, symBinAddr: 0x100009AC0, symSize: 0x18 }
  - { offsetInCU: 0x10352, offset: 0x10352, size: 0x8, addend: 0x0, symName: __ZNKSt3__112basic_stringIcNS_11char_traitsIcEENS_9allocatorIcEEE13__get_pointerB7v160006Ev, symObjAddr: 0x5668, symBinAddr: 0x100009B20, symSize: 0x54 }
  - { offsetInCU: 0x10378, offset: 0x10378, size: 0x8, addend: 0x0, symName: __ZNKSt3__112basic_stringIcNS_11char_traitsIcEENS_9allocatorIcEEE18__get_long_pointerB7v160006Ev, symObjAddr: 0x56BC, symBinAddr: 0x100009B74, symSize: 0x28 }
  - { offsetInCU: 0x1039E, offset: 0x1039E, size: 0x8, addend: 0x0, symName: __ZNKSt3__112basic_stringIcNS_11char_traitsIcEENS_9allocatorIcEEE19__get_short_pointerB7v160006Ev, symObjAddr: 0x56E4, symBinAddr: 0x100009B9C, symSize: 0x28 }
  - { offsetInCU: 0x103C4, offset: 0x103C4, size: 0x8, addend: 0x0, symName: __ZNSt3__114pointer_traitsIPKcE10pointer_toB7v160006ERS1_, symObjAddr: 0x570C, symBinAddr: 0x100009BC4, symSize: 0x14 }
  - { offsetInCU: 0x103E7, offset: 0x103E7, size: 0x8, addend: 0x0, symName: __ZNSt3__117basic_string_viewIcNS_11char_traitsIcEEEC1B7v160006EPKcm, symObjAddr: 0x5720, symBinAddr: 0x100009BD8, symSize: 0x3C }
  - { offsetInCU: 0x1042F, offset: 0x1042F, size: 0x8, addend: 0x0, symName: __ZNSt3__117basic_string_viewIcNS_11char_traitsIcEEEC2B7v160006EPKcm, symObjAddr: 0x575C, symBinAddr: 0x100009C14, symSize: 0x50 }
  - { offsetInCU: 0x10477, offset: 0x10477, size: 0x8, addend: 0x0, symName: __ZNKSt3__112__tuple_leafILm2ENS_12basic_stringIcNS_11char_traitsIcEENS_9allocatorIcEEEELb0EE3getB7v160006Ev, symObjAddr: 0x57AC, symBinAddr: 0x100009C64, symSize: 0x14 }
  - { offsetInCU: 0x1049D, offset: 0x1049D, size: 0x8, addend: 0x0, symName: __ZNSt3__15tupleIJdjNS_12basic_stringIcNS_11char_traitsIcEENS_9allocatorIcEEEEEE4swapB7v160006ERS7_, symObjAddr: 0x5818, symBinAddr: 0x100009CD0, symSize: 0x2C }
  - { offsetInCU: 0x104D2, offset: 0x104D2, size: 0x8, addend: 0x0, symName: __ZNSt3__112__tuple_implINS_15__tuple_indicesIJLm0ELm1ELm2EEEEJdjNS_12basic_stringIcNS_11char_traitsIcEENS_9allocatorIcEEEEEE4swapB7v160006ERS9_, symObjAddr: 0x5844, symBinAddr: 0x100009CFC, symSize: 0x88 }
  - { offsetInCU: 0x10507, offset: 0x10507, size: 0x8, addend: 0x0, symName: __ZNSt3__112__tuple_leafILm0EdLb0EE4swapB7v160006ERS1_, symObjAddr: 0x58E4, symBinAddr: 0x100009D9C, symSize: 0x30 }
  - { offsetInCU: 0x1053C, offset: 0x1053C, size: 0x8, addend: 0x0, symName: __ZNSt3__112__tuple_leafILm1EjLb0EE4swapB7v160006ERS1_, symObjAddr: 0x5914, symBinAddr: 0x100009DCC, symSize: 0x30 }
  - { offsetInCU: 0x10571, offset: 0x10571, size: 0x8, addend: 0x0, symName: __ZNSt3__112__tuple_leafILm2ENS_12basic_stringIcNS_11char_traitsIcEENS_9allocatorIcEEEELb0EE4swapB7v160006ERS7_, symObjAddr: 0x5944, symBinAddr: 0x100009DFC, symSize: 0x30 }
  - { offsetInCU: 0x105A6, offset: 0x105A6, size: 0x8, addend: 0x0, symName: __ZNSt3__112basic_stringIcNS_11char_traitsIcEENS_9allocatorIcEEE4swapB7v160006ERS5_, symObjAddr: 0x5AD8, symBinAddr: 0x100009F90, symSize: 0xA8 }
  - { offsetInCU: 0x105DD, offset: 0x105DD, size: 0x8, addend: 0x0, symName: __ZNSt3__112basic_stringIcNS_11char_traitsIcEENS_9allocatorIcEEE7__allocB7v160006Ev, symObjAddr: 0x5C00, symBinAddr: 0x10000A0B8, symSize: 0x24 }
  - { offsetInCU: 0x10603, offset: 0x10603, size: 0x8, addend: 0x0, symName: __ZNSt3__117__compressed_pairINS_12basic_stringIcNS_11char_traitsIcEENS_9allocatorIcEEE5__repES5_E6secondB7v160006Ev, symObjAddr: 0x5C38, symBinAddr: 0x10000A0F0, symSize: 0x24 }
  - { offsetInCU: 0x10629, offset: 0x10629, size: 0x8, addend: 0x0, symName: __ZNSt3__122__compressed_pair_elemINS_9allocatorIcEELi1ELb1EE5__getB7v160006Ev, symObjAddr: 0x5C5C, symBinAddr: 0x10000A114, symSize: 0x14 }
  - { offsetInCU: 0x1064F, offset: 0x1064F, size: 0x8, addend: 0x0, symName: __ZNSt3__18_IterOpsINS_17_ClassicAlgPolicyEE11__iter_moveB7v160006IRPNS_5tupleIJdjNS_12basic_stringIcNS_11char_traitsIcEENS_9allocatorIcEEEEEEEEENS_9enable_ifIXsr12is_referenceIDTdeclsr3stdE7declvalIRT_EEEEE5valueEDTclsr3stdE4movedeclsr3stdE7declvalISG_EEEEE4typeEOSF_, symObjAddr: 0x5D54, symBinAddr: 0x10000A20C, symSize: 0x28 }
  - { offsetInCU: 0x1067B, offset: 0x1067B, size: 0x8, addend: 0x0, symName: __ZNSt3__15tupleIJdjNS_12basic_stringIcNS_11char_traitsIcEENS_9allocatorIcEEEEEEaSB7v160006EOS7_, symObjAddr: 0x5D7C, symBinAddr: 0x10000A234, symSize: 0x3C }
  - { offsetInCU: 0x106B0, offset: 0x106B0, size: 0x8, addend: 0x0, symName: __ZNSt3__18_IterOpsINS_17_ClassicAlgPolicyEE25__validate_iter_referenceB7v160006IRPNS_5tupleIJdjNS_12basic_stringIcNS_11char_traitsIcEENS_9allocatorIcEEEEEEEEEvv, symObjAddr: 0x5DB8, symBinAddr: 0x10000A270, symSize: 0x4 }
  - { offsetInCU: 0x106CE, offset: 0x106CE, size: 0x8, addend: 0x0, symName: __ZNSt3__112basic_stringIcNS_11char_traitsIcEENS_9allocatorIcEEEaSB7v160006EOS5_, symObjAddr: 0x5E64, symBinAddr: 0x10000A31C, symSize: 0x34 }
  - { offsetInCU: 0x10703, offset: 0x10703, size: 0x8, addend: 0x0, symName: __ZNSt3__112basic_stringIcNS_11char_traitsIcEENS_9allocatorIcEEE13__move_assignB7v160006ERS5_NS_17integral_constantIbLb1EEE, symObjAddr: 0x5E98, symBinAddr: 0x10000A350, symSize: 0xC8 }
  - { offsetInCU: 0x10745, offset: 0x10745, size: 0x8, addend: 0x0, symName: __ZNSt3__116allocator_traitsINS_9allocatorIcEEE10deallocateB7v160006ERS2_Pcm, symObjAddr: 0x5F60, symBinAddr: 0x10000A418, symSize: 0x34 }
  - { offsetInCU: 0x10787, offset: 0x10787, size: 0x8, addend: 0x0, symName: __ZNKSt3__112basic_stringIcNS_11char_traitsIcEENS_9allocatorIcEEE14__get_long_capB7v160006Ev, symObjAddr: 0x5F94, symBinAddr: 0x10000A44C, symSize: 0x30 }
  - { offsetInCU: 0x107AD, offset: 0x107AD, size: 0x8, addend: 0x0, symName: __ZNSt3__112basic_stringIcNS_11char_traitsIcEENS_9allocatorIcEEE19__move_assign_allocB7v160006ERS5_, symObjAddr: 0x5FC4, symBinAddr: 0x10000A47C, symSize: 0x2C }
  - { offsetInCU: 0x107E2, offset: 0x107E2, size: 0x8, addend: 0x0, symName: __ZNSt3__19allocatorIcE10deallocateB7v160006EPcm, symObjAddr: 0x5FF0, symBinAddr: 0x10000A4A8, symSize: 0x40 }
  - { offsetInCU: 0x10824, offset: 0x10824, size: 0x8, addend: 0x0, symName: __ZNSt3__112basic_stringIcNS_11char_traitsIcEENS_9allocatorIcEEE19__move_assign_allocB7v160006ERS5_NS_17integral_constantIbLb1EEE, symObjAddr: 0x6030, symBinAddr: 0x10000A4E8, symSize: 0x38 }
  - { offsetInCU: 0x10864, offset: 0x10864, size: 0x8, addend: 0x0, symName: __ZNSt3__18_IterOpsINS_17_ClassicAlgPolicyEE4nextB7v160006IPNS_5tupleIJdjNS_12basic_stringIcNS_11char_traitsIcEENS_9allocatorIcEEEEEEEEET_SD_SD_, symObjAddr: 0x6068, symBinAddr: 0x10000A520, symSize: 0x18 }
  - { offsetInCU: 0x1089A, offset: 0x1089A, size: 0x8, addend: 0x0, symName: __ZNSt3__118__unwrap_iter_implINS_11__wrap_iterIPNS_5tupleIJdjNS_12basic_stringIcNS_11char_traitsIcEENS_9allocatorIcEEEEEEEEELb1EE8__unwrapB7v160006ESB_, symObjAddr: 0x6A3C, symBinAddr: 0x10000AEF4, symSize: 0x28 }
  - { offsetInCU: 0x108C7, offset: 0x108C7, size: 0x8, addend: 0x0, symName: __ZNSt3__119__to_address_helperINS_11__wrap_iterIPNS_5tupleIJdjNS_12basic_stringIcNS_11char_traitsIcEENS_9allocatorIcEEEEEEEEEvE6__callB7v160006ERKSB_, symObjAddr: 0x6A88, symBinAddr: 0x10000AF40, symSize: 0x30 }
  - { offsetInCU: 0x108EA, offset: 0x108EA, size: 0x8, addend: 0x0, symName: __ZNSt3__114pointer_traitsINS_11__wrap_iterIPNS_5tupleIJdjNS_12basic_stringIcNS_11char_traitsIcEENS_9allocatorIcEEEEEEEEEE10to_addressB7v160006ESB_, symObjAddr: 0x6AB8, symBinAddr: 0x10000AF70, symSize: 0x2C }
  - { offsetInCU: 0x1092C, offset: 0x1092C, size: 0x8, addend: 0x0, symName: __ZNKSt3__113basic_ostreamIcNS_11char_traitsIcEEE6sentrycvbB7v160006Ev, symObjAddr: 0x6CD0, symBinAddr: 0x10000B188, symSize: 0x1C }
  - { offsetInCU: 0x10952, offset: 0x10952, size: 0x8, addend: 0x0, symName: __ZNSt3__119ostreambuf_iteratorIcNS_11char_traitsIcEEEC1B7v160006ERNS_13basic_ostreamIcS2_EE, symObjAddr: 0x6F2C, symBinAddr: 0x10000B3E4, symSize: 0x34 }
  - { offsetInCU: 0x1098A, offset: 0x1098A, size: 0x8, addend: 0x0, symName: __ZNKSt3__18ios_base5flagsB7v160006Ev, symObjAddr: 0x6F60, symBinAddr: 0x10000B418, symSize: 0x18 }
  - { offsetInCU: 0x109B2, offset: 0x109B2, size: 0x8, addend: 0x0, symName: __ZNKSt3__19basic_iosIcNS_11char_traitsIcEEE4fillB7v160006Ev, symObjAddr: 0x6F78, symBinAddr: 0x10000B430, symSize: 0x64 }
  - { offsetInCU: 0x109DA, offset: 0x109DA, size: 0x8, addend: 0x0, symName: __ZNKSt3__119ostreambuf_iteratorIcNS_11char_traitsIcEEE6failedB7v160006Ev, symObjAddr: 0x6FDC, symBinAddr: 0x10000B494, symSize: 0x24 }
  - { offsetInCU: 0x10A00, offset: 0x10A00, size: 0x8, addend: 0x0, symName: __ZNSt3__115basic_streambufIcNS_11char_traitsIcEEE5sputnB7v160006EPKcl, symObjAddr: 0x7000, symBinAddr: 0x10000B4B8, symSize: 0x3C }
  - { offsetInCU: 0x10A42, offset: 0x10A42, size: 0x8, addend: 0x0, symName: __ZNSt3__112basic_stringIcNS_11char_traitsIcEENS_9allocatorIcEEEC1B7v160006Emc, symObjAddr: 0x703C, symBinAddr: 0x10000B4F4, symSize: 0x3C }
  - { offsetInCU: 0x10A8A, offset: 0x10A8A, size: 0x8, addend: 0x0, symName: __ZNSt3__112basic_stringIcNS_11char_traitsIcEENS_9allocatorIcEEEC2B7v160006Emc, symObjAddr: 0x7078, symBinAddr: 0x10000B530, symSize: 0x54 }
  - { offsetInCU: 0x10AD2, offset: 0x10AD2, size: 0x8, addend: 0x0, symName: __ZNSt3__119ostreambuf_iteratorIcNS_11char_traitsIcEEEC2B7v160006ERNS_13basic_ostreamIcS2_EE, symObjAddr: 0x70CC, symBinAddr: 0x10000B584, symSize: 0x54 }
...
