---
triple:          'arm64-apple-darwin'
binary-path:     '/Users/pakorn/dev/2110104-COMPROG/Map/08_Map_31'
relocations:
  - { offsetInCU: 0x5C, offset: 0x5C, size: 0x8, addend: 0x0, symName: __ZNSt3__1L19piecewise_constructE, symObjAddr: 0x9A15, symBinAddr: 0x10000B90D, symSize: 0x0 }
  - { offsetInCU: 0xC6BC, offset: 0xC6BC, size: 0x8, addend: 0x0, symName: __ZNSt3__124__put_character_sequenceB7v160006IcNS_11char_traitsIcEEEERNS_13basic_ostreamIT_T0_EES7_PKS4_m, symObjAddr: 0x8E90, symBinAddr: 0x10000A968, symSize: 0x1EC }
  - { offsetInCU: 0xE034, offset: 0xE034, size: 0x8, addend: 0x0, symName: __ZNSt3__1rsB7v160006IcNS_11char_traitsIcEENS_9allocatorIcEEEERNS_13basic_istreamIT_T0_EES9_RNS_12basic_stringIS6_S7_T1_EE, symObjAddr: 0x8E0, symBinAddr: 0x1000023B8, symSize: 0x31C }
  - { offsetInCU: 0xE103, offset: 0xE103, size: 0x8, addend: 0x0, symName: __ZNSt3__1neB7v160006ERKNS_14__map_iteratorINS_15__tree_iteratorINS_12__value_typeIdNS_4pairINS_12basic_stringIcNS_11char_traitsIcEENS_9allocatorIcEEEENS_6vectorIS9_NS7_IS9_EEEEEEEEPNS_11__tree_nodeISE_PvEElEEEESM_, symObjAddr: 0xEA4, symBinAddr: 0x10000297C, symSize: 0x30 }
  - { offsetInCU: 0xE140, offset: 0xE140, size: 0x8, addend: 0x0, symName: __ZNSt3__1neB7v160006IPNS_12basic_stringIcNS_11char_traitsIcEENS_9allocatorIcEEEEEEbRKNS_11__wrap_iterIT_EESC_, symObjAddr: 0xF90, symBinAddr: 0x100002A68, symSize: 0x34 }
  - { offsetInCU: 0xE183, offset: 0xE183, size: 0x8, addend: 0x0, symName: __ZNSt3__1neB7v160006ERKNS_14__map_iteratorINS_15__tree_iteratorINS_12__value_typeINS_12basic_stringIcNS_11char_traitsIcEENS_9allocatorIcEEEES8_EEPNS_11__tree_nodeIS9_PvEElEEEESH_, symObjAddr: 0x11CC, symBinAddr: 0x100002CA4, symSize: 0x30 }
  - { offsetInCU: 0xE1C0, offset: 0xE1C0, size: 0x8, addend: 0x0, symName: __ZNSt3__1lsB7v160006IcNS_11char_traitsIcEENS_9allocatorIcEEEERNS_13basic_ostreamIT_T0_EES9_RKNS_12basic_stringIS6_S7_T1_EE, symObjAddr: 0x1258, symBinAddr: 0x100002D30, symSize: 0x4C }
  - { offsetInCU: 0xE218, offset: 0xE218, size: 0x8, addend: 0x0, symName: __ZNSt3__1lsB7v160006INS_11char_traitsIcEEEERNS_13basic_ostreamIcT_EES6_PKc, symObjAddr: 0x12A4, symBinAddr: 0x100002D7C, symSize: 0x48 }
  - { offsetInCU: 0xE25E, offset: 0xE25E, size: 0x8, addend: 0x0, symName: __ZNSt3__14endlB7v160006IcNS_11char_traitsIcEEEERNS_13basic_ostreamIT_T0_EES7_, symObjAddr: 0x1318, symBinAddr: 0x100002DF0, symSize: 0x58 }
  - { offsetInCU: 0xE29E, offset: 0xE29E, size: 0x8, addend: 0x0, symName: __ZNSt3__122__make_exception_guardB7v160006INS_6vectorINS_12basic_stringIcNS_11char_traitsIcEENS_9allocatorIcEEEENS5_IS7_EEE16__destroy_vectorEEENS_28__exception_guard_exceptionsIT_EESC_, symObjAddr: 0x16BC, symBinAddr: 0x100003194, symSize: 0x40 }
  - { offsetInCU: 0xE2D3, offset: 0xE2D3, size: 0x8, addend: 0x0, symName: __ZNSt3__119__debug_db_insert_cB7v160006INS_6vectorINS_12basic_stringIcNS_11char_traitsIcEENS_9allocatorIcEEEENS5_IS7_EEEEEEvPT_, symObjAddr: 0x1730, symBinAddr: 0x100003208, symSize: 0x10 }
  - { offsetInCU: 0xE304, offset: 0xE304, size: 0x8, addend: 0x0, symName: __ZNSt3__119__allocate_at_leastB7v160006INS_9allocatorINS_12basic_stringIcNS_11char_traitsIcEENS1_IcEEEEEEEENS_19__allocation_resultINS_16allocator_traitsIT_E7pointerEEERSA_m, symObjAddr: 0x1A94, symBinAddr: 0x10000356C, symSize: 0x40 }
  - { offsetInCU: 0xE347, offset: 0xE347, size: 0x8, addend: 0x0, symName: __ZNSt3__13minB7v160006ImEERKT_S3_S3_, symObjAddr: 0x1BEC, symBinAddr: 0x1000036C4, symSize: 0x2C }
  - { offsetInCU: 0xE58B, offset: 0xE58B, size: 0x8, addend: 0x0, symName: __ZNSt3__13minB7v160006ImNS_6__lessImmEEEERKT_S5_S5_T0_, symObjAddr: 0x1C5C, symBinAddr: 0x100003734, symSize: 0x54 }
  - { offsetInCU: 0xE620, offset: 0xE620, size: 0x8, addend: 0x0, symName: __ZNSt3__120__throw_length_errorB7v160006EPKc, symObjAddr: 0x1D04, symBinAddr: 0x1000037DC, symSize: 0x64 }
  - { offsetInCU: 0xE648, offset: 0xE648, size: 0x8, addend: 0x0, symName: __ZNSt3__117__libcpp_allocateB7v160006Emm, symObjAddr: 0x1E78, symBinAddr: 0x100003950, symSize: 0x28 }
  - { offsetInCU: 0xE685, offset: 0xE685, size: 0x8, addend: 0x0, symName: __ZNSt3__121__libcpp_operator_newB7v160006IJmEEEPvDpT_, symObjAddr: 0x1EA0, symBinAddr: 0x100003978, symSize: 0x24 }
  - { offsetInCU: 0xE6BE, offset: 0xE6BE, size: 0x8, addend: 0x0, symName: __ZNSt3__112__to_addressB7v160006INS_12basic_stringIcNS_11char_traitsIcEENS_9allocatorIcEEEEEEPT_S8_, symObjAddr: 0x1FBC, symBinAddr: 0x100003A94, symSize: 0x14 }
  - { offsetInCU: 0xE6F3, offset: 0xE6F3, size: 0x8, addend: 0x0, symName: __ZNSt3__130__uninitialized_allocator_copyB7v160006INS_9allocatorINS_12basic_stringIcNS_11char_traitsIcEENS1_IcEEEEEEPS6_S8_S8_EET2_RT_T0_T1_S9_, symObjAddr: 0x206C, symBinAddr: 0x100003B44, symSize: 0xF4 }
  - { offsetInCU: 0xE791, offset: 0xE791, size: 0x8, addend: 0x0, symName: __ZNSt3__122__make_exception_guardB7v160006INS_29_AllocatorDestroyRangeReverseINS_9allocatorINS_12basic_stringIcNS_11char_traitsIcEENS2_IcEEEEEEPS7_EEEENS_28__exception_guard_exceptionsIT_EESC_, symObjAddr: 0x21D8, symBinAddr: 0x100003CB0, symSize: 0x4C }
  - { offsetInCU: 0xE7C7, offset: 0xE7C7, size: 0x8, addend: 0x0, symName: __ZNSt3__119__allocator_destroyB7v160006INS_9allocatorINS_12basic_stringIcNS_11char_traitsIcEENS1_IcEEEEEENS_16reverse_iteratorIPS6_EESA_EEvRT_T0_T1_, symObjAddr: 0x2468, symBinAddr: 0x100003F40, symSize: 0x70 }
  - { offsetInCU: 0xE82A, offset: 0xE82A, size: 0x8, addend: 0x0, symName: __ZNSt3__1neB7v160006IPNS_12basic_stringIcNS_11char_traitsIcEENS_9allocatorIcEEEES7_EEbRKNS_16reverse_iteratorIT_EERKNS8_IT0_EE, symObjAddr: 0x250C, symBinAddr: 0x100003FE4, symSize: 0x48 }
  - { offsetInCU: 0xE876, offset: 0xE876, size: 0x8, addend: 0x0, symName: __ZNSt3__112__to_addressB7v160006INS_16reverse_iteratorIPNS_12basic_stringIcNS_11char_traitsIcEENS_9allocatorIcEEEEEEvEENS_5decayIDTclsr19__to_address_helperIT_EE6__callclsr3stdE7declvalIRKSB_EEEEE4typeESD_, symObjAddr: 0x2580, symBinAddr: 0x100004058, symSize: 0x24 }
  - { offsetInCU: 0xE8D5, offset: 0xE8D5, size: 0x8, addend: 0x0, symName: __ZNSt3__118__debug_db_erase_cB7v160006INS_6vectorINS_12basic_stringIcNS_11char_traitsIcEENS_9allocatorIcEEEENS5_IS7_EEEEEEvPT_, symObjAddr: 0x2890, symBinAddr: 0x100004368, symSize: 0x10 }
  - { offsetInCU: 0xE906, offset: 0xE906, size: 0x8, addend: 0x0, symName: __ZNSt3__119__libcpp_deallocateB7v160006EPvmm, symObjAddr: 0x29CC, symBinAddr: 0x1000044A4, symSize: 0x30 }
  - { offsetInCU: 0xE94E, offset: 0xE94E, size: 0x8, addend: 0x0, symName: __ZNSt3__127__do_deallocate_handle_sizeB7v160006IJEEEvPvmDpT_, symObjAddr: 0x29FC, symBinAddr: 0x1000044D4, symSize: 0x28 }
  - { offsetInCU: 0xE98C, offset: 0xE98C, size: 0x8, addend: 0x0, symName: __ZNSt3__124__libcpp_operator_deleteB7v160006IJPvEEEvDpT_, symObjAddr: 0x2A24, symBinAddr: 0x1000044FC, symSize: 0x24 }
  - { offsetInCU: 0xE9C1, offset: 0xE9C1, size: 0x8, addend: 0x0, symName: __ZNSt3__1eqB7v160006IPNS_12basic_stringIcNS_11char_traitsIcEENS_9allocatorIcEEEEEEbRKNS_11__wrap_iterIT_EESC_, symObjAddr: 0x2BE4, symBinAddr: 0x1000046BC, symSize: 0x48 }
  - { offsetInCU: 0xEA04, offset: 0xEA04, size: 0x8, addend: 0x0, symName: __ZNSt3__119__debug_db_insert_cB7v160006INS_12basic_stringIcNS_11char_traitsIcEENS_9allocatorIcEEEEEEvPT_, symObjAddr: 0x2DEC, symBinAddr: 0x1000048C4, symSize: 0x10 }
  - { offsetInCU: 0xEFFD, offset: 0xEFFD, size: 0x8, addend: 0x0, symName: __ZNSt3__19use_facetB7v160006INS_5ctypeIcEEEERKT_RKNS_6localeE, symObjAddr: 0x4310, symBinAddr: 0x100005DE8, symSize: 0x2C }
  - { offsetInCU: 0xF3DD, offset: 0xF3DD, size: 0x8, addend: 0x0, symName: __ZNSt3__125__debug_db_invalidate_allB7v160006INS_12basic_stringIcNS_11char_traitsIcEENS_9allocatorIcEEEEEEvPT_, symObjAddr: 0x45EC, symBinAddr: 0x1000060C4, symSize: 0x10 }
  - { offsetInCU: 0xF667, offset: 0xF667, size: 0x8, addend: 0x0, symName: __ZNSt3__1ltB7v160006IcNS_11char_traitsIcEENS_9allocatorIcEEEEbRKNS_12basic_stringIT_T0_T1_EESB_, symObjAddr: 0x5044, symBinAddr: 0x100006B1C, symSize: 0x38 }
  - { offsetInCU: 0xF6E3, offset: 0xF6E3, size: 0x8, addend: 0x0, symName: __ZNSt3__118__constexpr_memcmpB7v160006IcEEiPKT_S3_m, symObjAddr: 0x53B8, symBinAddr: 0x100006E90, symSize: 0x34 }
  - { offsetInCU: 0xF734, offset: 0xF734, size: 0x8, addend: 0x0, symName: __ZNSt3__112__to_addressB7v160006IKcEEPT_S3_, symObjAddr: 0x53EC, symBinAddr: 0x100006EC4, symSize: 0x14 }
  - { offsetInCU: 0xF7BA, offset: 0xF7BA, size: 0x8, addend: 0x0, symName: __ZNSt3__127__tree_balance_after_insertB7v160006IPNS_16__tree_node_baseIPvEEEEvT_S5_, symObjAddr: 0x5968, symBinAddr: 0x100007440, symSize: 0x32C }
  - { offsetInCU: 0xF836, offset: 0xF836, size: 0x8, addend: 0x0, symName: __ZNSt3__120__tree_is_left_childB7v160006IPNS_16__tree_node_baseIPvEEEEbT_, symObjAddr: 0x5CD4, symBinAddr: 0x1000077AC, symSize: 0x2C }
  - { offsetInCU: 0xF86B, offset: 0xF86B, size: 0x8, addend: 0x0, symName: __ZNSt3__118__tree_left_rotateB7v160006IPNS_16__tree_node_baseIPvEEEEvT_, symObjAddr: 0x5D00, symBinAddr: 0x1000077D8, symSize: 0xD8 }
  - { offsetInCU: 0xF8AD, offset: 0xF8AD, size: 0x8, addend: 0x0, symName: __ZNSt3__119__tree_right_rotateB7v160006IPNS_16__tree_node_baseIPvEEEEvT_, symObjAddr: 0x5DD8, symBinAddr: 0x1000078B0, symSize: 0xCC }
  - { offsetInCU: 0xF931, offset: 0xF931, size: 0x8, addend: 0x0, symName: __ZNSt3__115__debug_db_swapB7v160006INS_12basic_stringIcNS_11char_traitsIcEENS_9allocatorIcEEEEEEvPT_S8_, symObjAddr: 0x6DEC, symBinAddr: 0x1000088C4, symSize: 0x14 }
  - { offsetInCU: 0xF970, offset: 0xF970, size: 0x8, addend: 0x0, symName: __ZNSt3__115__debug_db_swapB7v160006INS_6vectorINS_12basic_stringIcNS_11char_traitsIcEENS_9allocatorIcEEEENS5_IS7_EEEEEEvPT_SB_, symObjAddr: 0x6EDC, symBinAddr: 0x1000089B4, symSize: 0x14 }
  - { offsetInCU: 0xF9AF, offset: 0xF9AF, size: 0x8, addend: 0x0, symName: __ZNSt3__130__uninitialized_allocator_copyB7v160006INS_9allocatorINS_12basic_stringIcNS_11char_traitsIcEENS1_IcEEEEEEPKS6_S9_PS6_EET2_RT_T0_T1_SB_, symObjAddr: 0x7514, symBinAddr: 0x100008FEC, symSize: 0xF4 }
  - { offsetInCU: 0xFA4D, offset: 0xFA4D, size: 0x8, addend: 0x0, symName: __ZNSt3__1neB7v160006ERKNS_15__tree_iteratorINS_12__value_typeIdNS_4pairINS_12basic_stringIcNS_11char_traitsIcEENS_9allocatorIcEEEENS_6vectorIS8_NS6_IS8_EEEEEEEEPNS_11__tree_nodeISD_PvEElEESK_, symObjAddr: 0x776C, symBinAddr: 0x100009244, symSize: 0x34 }
  - { offsetInCU: 0xFA8A, offset: 0xFA8A, size: 0x8, addend: 0x0, symName: __ZNSt3__1eqB7v160006ERKNS_15__tree_iteratorINS_12__value_typeIdNS_4pairINS_12basic_stringIcNS_11char_traitsIcEENS_9allocatorIcEEEENS_6vectorIS8_NS6_IS8_EEEEEEEEPNS_11__tree_nodeISD_PvEElEESK_, symObjAddr: 0x77A0, symBinAddr: 0x100009278, symSize: 0x30 }
  - { offsetInCU: 0xFAC7, offset: 0xFAC7, size: 0x8, addend: 0x0, symName: __ZNSt3__116__tree_next_iterB7v160006IPNS_15__tree_end_nodeIPNS_16__tree_node_baseIPvEEEES5_EET_T0_, symObjAddr: 0x7808, symBinAddr: 0x1000092E0, symSize: 0x80 }
  - { offsetInCU: 0xFB05, offset: 0xFB05, size: 0x8, addend: 0x0, symName: __ZNSt3__110__tree_minB7v160006IPNS_16__tree_node_baseIPvEEEET_S5_, symObjAddr: 0x7888, symBinAddr: 0x100009360, symSize: 0x40 }
  - { offsetInCU: 0xFBA4, offset: 0xFBA4, size: 0x8, addend: 0x0, symName: __ZNSt3__116forward_as_tupleB7v160006IJRKNS_12basic_stringIcNS_11char_traitsIcEENS_9allocatorIcEEEEEEENS_5tupleIJDpOT_EEESC_, symObjAddr: 0x7AB4, symBinAddr: 0x10000958C, symSize: 0x2C }
  - { offsetInCU: 0xFBDD, offset: 0xFBDD, size: 0x8, addend: 0x0, symName: __ZNSt3__116forward_as_tupleB7v160006IJEEENS_5tupleIJDpOT_EEES4_, symObjAddr: 0x7AE0, symBinAddr: 0x1000095B8, symSize: 0x4 }
  - { offsetInCU: 0xFC0C, offset: 0xFC0C, size: 0x8, addend: 0x0, symName: __ZNSt3__13getB7v160006ILm0EJRKNS_12basic_stringIcNS_11char_traitsIcEENS_9allocatorIcEEEEEEERNS_13tuple_elementIXT_ENS_5tupleIJDpT0_EEEE4typeERSD_, symObjAddr: 0x7D78, symBinAddr: 0x100009850, symSize: 0x24 }
  - { offsetInCU: 0xFCC4, offset: 0xFCC4, size: 0x8, addend: 0x0, symName: __ZNSt3__1neB7v160006ERKNS_15__tree_iteratorINS_12__value_typeINS_12basic_stringIcNS_11char_traitsIcEENS_9allocatorIcEEEES7_EEPNS_11__tree_nodeIS8_PvEElEESF_, symObjAddr: 0x8D9C, symBinAddr: 0x10000A874, symSize: 0x34 }
  - { offsetInCU: 0xFD01, offset: 0xFD01, size: 0x8, addend: 0x0, symName: __ZNSt3__1eqB7v160006ERKNS_15__tree_iteratorINS_12__value_typeINS_12basic_stringIcNS_11char_traitsIcEENS_9allocatorIcEEEES7_EEPNS_11__tree_nodeIS8_PvEElEESF_, symObjAddr: 0x8DD0, symBinAddr: 0x10000A8A8, symSize: 0x30 }
  - { offsetInCU: 0xFD71, offset: 0xFD71, size: 0x8, addend: 0x0, symName: __ZNSt3__116__pad_and_outputB7v160006IcNS_11char_traitsIcEEEENS_19ostreambuf_iteratorIT_T0_EES6_PKS4_S8_S8_RNS_8ios_baseES4_, symObjAddr: 0x9098, symBinAddr: 0x10000AB70, symSize: 0x240 }
  - { offsetInCU: 0xFE40, offset: 0xFE40, size: 0x8, addend: 0x0, symName: __ZNSt3__118__constexpr_strlenB7v160006EPKc, symObjAddr: 0x95BC, symBinAddr: 0x10000B094, symSize: 0x24 }
  - { offsetInCU: 0x102EC, offset: 0x102EC, size: 0x8, addend: 0x0, symName: __ZSt28__throw_bad_array_new_lengthB7v160006v, symObjAddr: 0x1E44, symBinAddr: 0x10000391C, symSize: 0x34 }
  - { offsetInCU: 0x138EE, offset: 0x138EE, size: 0x8, addend: 0x0, symName: _main, symObjAddr: 0x0, symBinAddr: 0x100001AD8, symSize: 0x830 }
  - { offsetInCU: 0x13B03, offset: 0x13B03, size: 0x8, addend: 0x0, symName: __ZNSt3__13mapIdNS_4pairINS_12basic_stringIcNS_11char_traitsIcEENS_9allocatorIcEEEENS_6vectorIS7_NS5_IS7_EEEEEENS_4lessIdEENS5_INS1_IKdSB_EEEEEC1B7v160006Ev, symObjAddr: 0x830, symBinAddr: 0x100002308, symSize: 0x2C }
  - { offsetInCU: 0x13B2D, offset: 0x13B2D, size: 0x8, addend: 0x0, symName: __ZNSt3__13mapINS_12basic_stringIcNS_11char_traitsIcEENS_9allocatorIcEEEES6_NS_4lessIS6_EENS4_INS_4pairIKS6_S6_EEEEEC1B7v160006Ev, symObjAddr: 0x85C, symBinAddr: 0x100002334, symSize: 0x2C }
  - { offsetInCU: 0x13B57, offset: 0x13B57, size: 0x8, addend: 0x0, symName: __ZNSt3__13mapINS_12basic_stringIcNS_11char_traitsIcEENS_9allocatorIcEEEEiNS_4lessIS6_EENS4_INS_4pairIKS6_iEEEEEC1B7v160006Ev, symObjAddr: 0x888, symBinAddr: 0x100002360, symSize: 0x2C }
  - { offsetInCU: 0x13B81, offset: 0x13B81, size: 0x8, addend: 0x0, symName: __ZNSt3__112basic_stringIcNS_11char_traitsIcEENS_9allocatorIcEEEC1B7v160006Ev, symObjAddr: 0x8B4, symBinAddr: 0x10000238C, symSize: 0x2C }
  - { offsetInCU: 0x13BAB, offset: 0x13BAB, size: 0x8, addend: 0x0, symName: __ZNSt3__13mapINS_12basic_stringIcNS_11char_traitsIcEENS_9allocatorIcEEEEiNS_4lessIS6_EENS4_INS_4pairIKS6_iEEEEE6insertB7v160006EOSB_, symObjAddr: 0xBFC, symBinAddr: 0x1000026D4, symSize: 0x4C }
  - { offsetInCU: 0x13BE5, offset: 0x13BE5, size: 0x8, addend: 0x0, symName: __ZNSt3__14pairIKNS_12basic_stringIcNS_11char_traitsIcEENS_9allocatorIcEEEEiEC1B7v160006IRS6_RiLPv0EEEOT_OT0_, symObjAddr: 0xC48, symBinAddr: 0x100002720, symSize: 0x3C }
  - { offsetInCU: 0x13C43, offset: 0x13C43, size: 0x8, addend: 0x0, symName: __ZNSt3__14pairIKNS_12basic_stringIcNS_11char_traitsIcEENS_9allocatorIcEEEEiED1Ev, symObjAddr: 0xC84, symBinAddr: 0x10000275C, symSize: 0x2C }
  - { offsetInCU: 0x13C6F, offset: 0x13C6F, size: 0x8, addend: 0x0, symName: __ZNSt3__13mapIdNS_4pairINS_12basic_stringIcNS_11char_traitsIcEENS_9allocatorIcEEEENS_6vectorIS7_NS5_IS7_EEEEEENS_4lessIdEENS5_INS1_IKdSB_EEEEE6insertB7v160006EOSF_, symObjAddr: 0xCB0, symBinAddr: 0x100002788, symSize: 0x4C }
  - { offsetInCU: 0x13CA4, offset: 0x13CA4, size: 0x8, addend: 0x0, symName: __ZNSt3__16vectorINS_12basic_stringIcNS_11char_traitsIcEENS_9allocatorIcEEEENS4_IS6_EEEC1B7v160006ESt16initializer_listIS6_E, symObjAddr: 0xCFC, symBinAddr: 0x1000027D4, symSize: 0x3C }
  - { offsetInCU: 0x13CDF, offset: 0x13CDF, size: 0x8, addend: 0x0, symName: __ZNSt3__14pairINS_12basic_stringIcNS_11char_traitsIcEENS_9allocatorIcEEEENS_6vectorIS6_NS4_IS6_EEEEEC1B7v160006ILb1ELPv0EEERKS6_RKS9_, symObjAddr: 0xD38, symBinAddr: 0x100002810, symSize: 0x3C }
  - { offsetInCU: 0x13D35, offset: 0x13D35, size: 0x8, addend: 0x0, symName: __ZNSt3__14pairIKdNS0_INS_12basic_stringIcNS_11char_traitsIcEENS_9allocatorIcEEEENS_6vectorIS7_NS5_IS7_EEEEEEEC1B7v160006ILb1ELPv0EEERS1_RKSB_, symObjAddr: 0xD74, symBinAddr: 0x10000284C, symSize: 0x3C }
  - { offsetInCU: 0x13D8B, offset: 0x13D8B, size: 0x8, addend: 0x0, symName: __ZNSt3__14pairIKdNS0_INS_12basic_stringIcNS_11char_traitsIcEENS_9allocatorIcEEEENS_6vectorIS7_NS5_IS7_EEEEEEED1Ev, symObjAddr: 0xDB0, symBinAddr: 0x100002888, symSize: 0x2C }
  - { offsetInCU: 0x13DB7, offset: 0x13DB7, size: 0x8, addend: 0x0, symName: __ZNSt3__14pairINS_12basic_stringIcNS_11char_traitsIcEENS_9allocatorIcEEEENS_6vectorIS6_NS4_IS6_EEEEED1Ev, symObjAddr: 0xDDC, symBinAddr: 0x1000028B4, symSize: 0x2C }
  - { offsetInCU: 0x13DE3, offset: 0x13DE3, size: 0x8, addend: 0x0, symName: __ZNSt3__16vectorINS_12basic_stringIcNS_11char_traitsIcEENS_9allocatorIcEEEENS4_IS6_EEED1B7v160006Ev, symObjAddr: 0xE08, symBinAddr: 0x1000028E0, symSize: 0x2C }
  - { offsetInCU: 0x13E0D, offset: 0x13E0D, size: 0x8, addend: 0x0, symName: __ZNSt3__13mapIdNS_4pairINS_12basic_stringIcNS_11char_traitsIcEENS_9allocatorIcEEEENS_6vectorIS7_NS5_IS7_EEEEEENS_4lessIdEENS5_INS1_IKdSB_EEEEE5beginB7v160006Ev, symObjAddr: 0xE34, symBinAddr: 0x10000290C, symSize: 0x38 }
  - { offsetInCU: 0x13E33, offset: 0x13E33, size: 0x8, addend: 0x0, symName: __ZNSt3__13mapIdNS_4pairINS_12basic_stringIcNS_11char_traitsIcEENS_9allocatorIcEEEENS_6vectorIS7_NS5_IS7_EEEEEENS_4lessIdEENS5_INS1_IKdSB_EEEEE3endB7v160006Ev, symObjAddr: 0xE6C, symBinAddr: 0x100002944, symSize: 0x38 }
  - { offsetInCU: 0x13E59, offset: 0x13E59, size: 0x8, addend: 0x0, symName: __ZNKSt3__114__map_iteratorINS_15__tree_iteratorINS_12__value_typeIdNS_4pairINS_12basic_stringIcNS_11char_traitsIcEENS_9allocatorIcEEEENS_6vectorIS9_NS7_IS9_EEEEEEEEPNS_11__tree_nodeISE_PvEElEEEdeB7v160006Ev, symObjAddr: 0xED4, symBinAddr: 0x1000029AC, symSize: 0x28 }
  - { offsetInCU: 0x13E7F, offset: 0x13E7F, size: 0x8, addend: 0x0, symName: __ZNSt3__14pairIKdNS0_INS_12basic_stringIcNS_11char_traitsIcEENS_9allocatorIcEEEENS_6vectorIS7_NS5_IS7_EEEEEEEC1ERKSC_, symObjAddr: 0xEFC, symBinAddr: 0x1000029D4, symSize: 0x34 }
  - { offsetInCU: 0x13EB4, offset: 0x13EB4, size: 0x8, addend: 0x0, symName: __ZNSt3__16vectorINS_12basic_stringIcNS_11char_traitsIcEENS_9allocatorIcEEEENS4_IS6_EEE5beginB7v160006Ev, symObjAddr: 0xF30, symBinAddr: 0x100002A08, symSize: 0x30 }
  - { offsetInCU: 0x13EDC, offset: 0x13EDC, size: 0x8, addend: 0x0, symName: __ZNSt3__16vectorINS_12basic_stringIcNS_11char_traitsIcEENS_9allocatorIcEEEENS4_IS6_EEE3endB7v160006Ev, symObjAddr: 0xF60, symBinAddr: 0x100002A38, symSize: 0x30 }
  - { offsetInCU: 0x13F04, offset: 0x13F04, size: 0x8, addend: 0x0, symName: __ZNKSt3__111__wrap_iterIPNS_12basic_stringIcNS_11char_traitsIcEENS_9allocatorIcEEEEEdeB7v160006Ev, symObjAddr: 0xFC4, symBinAddr: 0x100002A9C, symSize: 0x18 }
  - { offsetInCU: 0x13F2A, offset: 0x13F2A, size: 0x8, addend: 0x0, symName: __ZNSt3__13mapINS_12basic_stringIcNS_11char_traitsIcEENS_9allocatorIcEEEEiNS_4lessIS6_EENS4_INS_4pairIKS6_iEEEEEixERSA_, symObjAddr: 0xFDC, symBinAddr: 0x100002AB4, symSize: 0x80 }
  - { offsetInCU: 0x13F61, offset: 0x13F61, size: 0x8, addend: 0x0, symName: __ZNSt3__13mapINS_12basic_stringIcNS_11char_traitsIcEENS_9allocatorIcEEEES6_NS_4lessIS6_EENS4_INS_4pairIKS6_S6_EEEEE6insertB7v160006EOSB_, symObjAddr: 0x105C, symBinAddr: 0x100002B34, symSize: 0x4C }
  - { offsetInCU: 0x13F96, offset: 0x13F96, size: 0x8, addend: 0x0, symName: __ZNSt3__14pairIKNS_12basic_stringIcNS_11char_traitsIcEENS_9allocatorIcEEEES6_EC1B7v160006IRS6_SA_LPv0EEEOT_OT0_, symObjAddr: 0x10A8, symBinAddr: 0x100002B80, symSize: 0x3C }
  - { offsetInCU: 0x13FF4, offset: 0x13FF4, size: 0x8, addend: 0x0, symName: __ZNSt3__14pairIKNS_12basic_stringIcNS_11char_traitsIcEENS_9allocatorIcEEEES6_ED1Ev, symObjAddr: 0x10E4, symBinAddr: 0x100002BBC, symSize: 0x2C }
  - { offsetInCU: 0x14020, offset: 0x14020, size: 0x8, addend: 0x0, symName: __ZNSt3__111__wrap_iterIPNS_12basic_stringIcNS_11char_traitsIcEENS_9allocatorIcEEEEEppB7v160006Ev, symObjAddr: 0x1110, symBinAddr: 0x100002BE8, symSize: 0x20 }
  - { offsetInCU: 0x14046, offset: 0x14046, size: 0x8, addend: 0x0, symName: __ZNSt3__114__map_iteratorINS_15__tree_iteratorINS_12__value_typeIdNS_4pairINS_12basic_stringIcNS_11char_traitsIcEENS_9allocatorIcEEEENS_6vectorIS9_NS7_IS9_EEEEEEEEPNS_11__tree_nodeISE_PvEElEEEppB7v160006Ev, symObjAddr: 0x1130, symBinAddr: 0x100002C08, symSize: 0x2C }
  - { offsetInCU: 0x1406C, offset: 0x1406C, size: 0x8, addend: 0x0, symName: __ZNSt3__13mapINS_12basic_stringIcNS_11char_traitsIcEENS_9allocatorIcEEEES6_NS_4lessIS6_EENS4_INS_4pairIKS6_S6_EEEEE5beginB7v160006Ev, symObjAddr: 0x115C, symBinAddr: 0x100002C34, symSize: 0x38 }
  - { offsetInCU: 0x14092, offset: 0x14092, size: 0x8, addend: 0x0, symName: __ZNSt3__13mapINS_12basic_stringIcNS_11char_traitsIcEENS_9allocatorIcEEEES6_NS_4lessIS6_EENS4_INS_4pairIKS6_S6_EEEEE3endB7v160006Ev, symObjAddr: 0x1194, symBinAddr: 0x100002C6C, symSize: 0x38 }
  - { offsetInCU: 0x140B8, offset: 0x140B8, size: 0x8, addend: 0x0, symName: __ZNKSt3__114__map_iteratorINS_15__tree_iteratorINS_12__value_typeINS_12basic_stringIcNS_11char_traitsIcEENS_9allocatorIcEEEES8_EEPNS_11__tree_nodeIS9_PvEElEEEdeB7v160006Ev, symObjAddr: 0x11FC, symBinAddr: 0x100002CD4, symSize: 0x28 }
  - { offsetInCU: 0x140DE, offset: 0x140DE, size: 0x8, addend: 0x0, symName: __ZNSt3__14pairIKNS_12basic_stringIcNS_11char_traitsIcEENS_9allocatorIcEEEES6_EC1ERKS8_, symObjAddr: 0x1224, symBinAddr: 0x100002CFC, symSize: 0x34 }
  - { offsetInCU: 0x14113, offset: 0x14113, size: 0x8, addend: 0x0, symName: __ZNSt3__113basic_ostreamIcNS_11char_traitsIcEEElsB7v160006EPFRS3_S4_E, symObjAddr: 0x12EC, symBinAddr: 0x100002DC4, symSize: 0x2C }
  - { offsetInCU: 0x14147, offset: 0x14147, size: 0x8, addend: 0x0, symName: __ZNSt3__114__map_iteratorINS_15__tree_iteratorINS_12__value_typeINS_12basic_stringIcNS_11char_traitsIcEENS_9allocatorIcEEEES8_EEPNS_11__tree_nodeIS9_PvEElEEEppB7v160006Ev, symObjAddr: 0x1370, symBinAddr: 0x100002E48, symSize: 0x2C }
  - { offsetInCU: 0x1416D, offset: 0x1416D, size: 0x8, addend: 0x0, symName: __ZNSt3__13mapINS_12basic_stringIcNS_11char_traitsIcEENS_9allocatorIcEEEEiNS_4lessIS6_EENS4_INS_4pairIKS6_iEEEEED1B7v160006Ev, symObjAddr: 0x139C, symBinAddr: 0x100002E74, symSize: 0x2C }
  - { offsetInCU: 0x14197, offset: 0x14197, size: 0x8, addend: 0x0, symName: __ZNSt3__13mapINS_12basic_stringIcNS_11char_traitsIcEENS_9allocatorIcEEEES6_NS_4lessIS6_EENS4_INS_4pairIKS6_S6_EEEEED1B7v160006Ev, symObjAddr: 0x13C8, symBinAddr: 0x100002EA0, symSize: 0x2C }
  - { offsetInCU: 0x141C1, offset: 0x141C1, size: 0x8, addend: 0x0, symName: __ZNSt3__13mapIdNS_4pairINS_12basic_stringIcNS_11char_traitsIcEENS_9allocatorIcEEEENS_6vectorIS7_NS5_IS7_EEEEEENS_4lessIdEENS5_INS1_IKdSB_EEEEED1B7v160006Ev, symObjAddr: 0x13F4, symBinAddr: 0x100002ECC, symSize: 0x2C }
  - { offsetInCU: 0x141EB, offset: 0x141EB, size: 0x8, addend: 0x0, symName: __ZNSt3__14pairIKNS_12basic_stringIcNS_11char_traitsIcEENS_9allocatorIcEEEEiEC2B7v160006IRS6_RiLPv0EEEOT_OT0_, symObjAddr: 0x1420, symBinAddr: 0x100002EF8, symSize: 0x44 }
  - { offsetInCU: 0x14249, offset: 0x14249, size: 0x8, addend: 0x0, symName: __ZNSt3__14pairIKNS_12basic_stringIcNS_11char_traitsIcEENS_9allocatorIcEEEEiED2Ev, symObjAddr: 0x1464, symBinAddr: 0x100002F3C, symSize: 0x2C }
  - { offsetInCU: 0x14275, offset: 0x14275, size: 0x8, addend: 0x0, symName: __ZNSt3__14pairINS_12basic_stringIcNS_11char_traitsIcEENS_9allocatorIcEEEENS_6vectorIS6_NS4_IS6_EEEEEC2B7v160006ILb1ELPv0EEERKS6_RKS9_, symObjAddr: 0x1490, symBinAddr: 0x100002F68, symSize: 0x70 }
  - { offsetInCU: 0x142CB, offset: 0x142CB, size: 0x8, addend: 0x0, symName: __ZNSt3__16vectorINS_12basic_stringIcNS_11char_traitsIcEENS_9allocatorIcEEEENS4_IS6_EEEC1ERKS8_, symObjAddr: 0x1500, symBinAddr: 0x100002FD8, symSize: 0x34 }
  - { offsetInCU: 0x14306, offset: 0x14306, size: 0x8, addend: 0x0, symName: __ZNSt3__16vectorINS_12basic_stringIcNS_11char_traitsIcEENS_9allocatorIcEEEENS4_IS6_EEEC2ERKS8_, symObjAddr: 0x1534, symBinAddr: 0x10000300C, symSize: 0x114 }
  - { offsetInCU: 0x1436F, offset: 0x1436F, size: 0x8, addend: 0x0, symName: __ZNSt3__116allocator_traitsINS_9allocatorINS_12basic_stringIcNS_11char_traitsIcEENS1_IcEEEEEEE37select_on_container_copy_constructionB7v160006IS7_vvEES7_RKS7_, symObjAddr: 0x1648, symBinAddr: 0x100003120, symSize: 0x10 }
  - { offsetInCU: 0x1439E, offset: 0x1439E, size: 0x8, addend: 0x0, symName: __ZNKSt3__16vectorINS_12basic_stringIcNS_11char_traitsIcEENS_9allocatorIcEEEENS4_IS6_EEE7__allocB7v160006Ev, symObjAddr: 0x1658, symBinAddr: 0x100003130, symSize: 0x28 }
  - { offsetInCU: 0x143CE, offset: 0x143CE, size: 0x8, addend: 0x0, symName: __ZNSt3__117__compressed_pairIPNS_12basic_stringIcNS_11char_traitsIcEENS_9allocatorIcEEEENS4_IS6_EEEC1B7v160006IDnS8_EEOT_OT0_, symObjAddr: 0x1680, symBinAddr: 0x100003158, symSize: 0x3C }
  - { offsetInCU: 0x14426, offset: 0x14426, size: 0x8, addend: 0x0, symName: __ZNSt3__16vectorINS_12basic_stringIcNS_11char_traitsIcEENS_9allocatorIcEEEENS4_IS6_EEE16__destroy_vectorC1ERS8_, symObjAddr: 0x16FC, symBinAddr: 0x1000031D4, symSize: 0x34 }
  - { offsetInCU: 0x1445F, offset: 0x1445F, size: 0x8, addend: 0x0, symName: __ZNKSt3__16vectorINS_12basic_stringIcNS_11char_traitsIcEENS_9allocatorIcEEEENS4_IS6_EEE4sizeB7v160006Ev, symObjAddr: 0x1740, symBinAddr: 0x100003218, symSize: 0x28 }
  - { offsetInCU: 0x14485, offset: 0x14485, size: 0x8, addend: 0x0, symName: __ZNSt3__16vectorINS_12basic_stringIcNS_11char_traitsIcEENS_9allocatorIcEEEENS4_IS6_EEE11__vallocateB7v160006Em, symObjAddr: 0x1768, symBinAddr: 0x100003240, symSize: 0xB4 }
  - { offsetInCU: 0x144C9, offset: 0x144C9, size: 0x8, addend: 0x0, symName: __ZNSt3__16vectorINS_12basic_stringIcNS_11char_traitsIcEENS_9allocatorIcEEEENS4_IS6_EEE18__construct_at_endIPS6_Li0EEEvT_SB_m, symObjAddr: 0x181C, symBinAddr: 0x1000032F4, symSize: 0x8C }
  - { offsetInCU: 0x1453C, offset: 0x1453C, size: 0x8, addend: 0x0, symName: __ZNSt3__128__exception_guard_exceptionsINS_6vectorINS_12basic_stringIcNS_11char_traitsIcEENS_9allocatorIcEEEENS5_IS7_EEE16__destroy_vectorEE10__completeB7v160006Ev, symObjAddr: 0x18A8, symBinAddr: 0x100003380, symSize: 0x1C }
  - { offsetInCU: 0x14562, offset: 0x14562, size: 0x8, addend: 0x0, symName: __ZNSt3__128__exception_guard_exceptionsINS_6vectorINS_12basic_stringIcNS_11char_traitsIcEENS_9allocatorIcEEEENS5_IS7_EEE16__destroy_vectorEED1B7v160006Ev, symObjAddr: 0x18C4, symBinAddr: 0x10000339C, symSize: 0x2C }
  - { offsetInCU: 0x1458C, offset: 0x1458C, size: 0x8, addend: 0x0, symName: __ZNKSt3__117__compressed_pairIPNS_12basic_stringIcNS_11char_traitsIcEENS_9allocatorIcEEEENS4_IS6_EEE6secondB7v160006Ev, symObjAddr: 0x18F0, symBinAddr: 0x1000033C8, symSize: 0x24 }
  - { offsetInCU: 0x145B2, offset: 0x145B2, size: 0x8, addend: 0x0, symName: __ZNKSt3__122__compressed_pair_elemINS_9allocatorINS_12basic_stringIcNS_11char_traitsIcEENS1_IcEEEEEELi1ELb1EE5__getB7v160006Ev, symObjAddr: 0x1914, symBinAddr: 0x1000033EC, symSize: 0x14 }
  - { offsetInCU: 0x145D8, offset: 0x145D8, size: 0x8, addend: 0x0, symName: __ZNSt3__117__compressed_pairIPNS_12basic_stringIcNS_11char_traitsIcEENS_9allocatorIcEEEENS4_IS6_EEEC2B7v160006IDnS8_EEOT_OT0_, symObjAddr: 0x1928, symBinAddr: 0x100003400, symSize: 0x44 }
  - { offsetInCU: 0x14630, offset: 0x14630, size: 0x8, addend: 0x0, symName: __ZNSt3__122__compressed_pair_elemIPNS_12basic_stringIcNS_11char_traitsIcEENS_9allocatorIcEEEELi0ELb0EEC2B7v160006IDnvEEOT_, symObjAddr: 0x196C, symBinAddr: 0x100003444, symSize: 0x1C }
  - { offsetInCU: 0x14672, offset: 0x14672, size: 0x8, addend: 0x0, symName: __ZNSt3__122__compressed_pair_elemINS_9allocatorINS_12basic_stringIcNS_11char_traitsIcEENS1_IcEEEEEELi1ELb1EEC2B7v160006IS7_vEEOT_, symObjAddr: 0x1988, symBinAddr: 0x100003460, symSize: 0x18 }
  - { offsetInCU: 0x146B4, offset: 0x146B4, size: 0x8, addend: 0x0, symName: __ZNSt3__128__exception_guard_exceptionsINS_6vectorINS_12basic_stringIcNS_11char_traitsIcEENS_9allocatorIcEEEENS5_IS7_EEE16__destroy_vectorEEC1B7v160006ESA_, symObjAddr: 0x19A0, symBinAddr: 0x100003478, symSize: 0x34 }
  - { offsetInCU: 0x146EC, offset: 0x146EC, size: 0x8, addend: 0x0, symName: __ZNSt3__128__exception_guard_exceptionsINS_6vectorINS_12basic_stringIcNS_11char_traitsIcEENS_9allocatorIcEEEENS5_IS7_EEE16__destroy_vectorEEC2B7v160006ESA_, symObjAddr: 0x19D4, symBinAddr: 0x1000034AC, symSize: 0x24 }
  - { offsetInCU: 0x14724, offset: 0x14724, size: 0x8, addend: 0x0, symName: __ZNSt3__16vectorINS_12basic_stringIcNS_11char_traitsIcEENS_9allocatorIcEEEENS4_IS6_EEE16__destroy_vectorC2ERS8_, symObjAddr: 0x19F8, symBinAddr: 0x1000034D0, symSize: 0x20 }
  - { offsetInCU: 0x1475D, offset: 0x1475D, size: 0x8, addend: 0x0, symName: __ZNKSt3__16vectorINS_12basic_stringIcNS_11char_traitsIcEENS_9allocatorIcEEEENS4_IS6_EEE8max_sizeEv, symObjAddr: 0x1A18, symBinAddr: 0x1000034F0, symSize: 0x60 }
  - { offsetInCU: 0x14785, offset: 0x14785, size: 0x8, addend: 0x0, symName: __ZNKSt3__16vectorINS_12basic_stringIcNS_11char_traitsIcEENS_9allocatorIcEEEENS4_IS6_EEE20__throw_length_errorB7v160006Ev, symObjAddr: 0x1A78, symBinAddr: 0x100003550, symSize: 0x1C }
  - { offsetInCU: 0x147AB, offset: 0x147AB, size: 0x8, addend: 0x0, symName: __ZNSt3__16vectorINS_12basic_stringIcNS_11char_traitsIcEENS_9allocatorIcEEEENS4_IS6_EEE7__allocB7v160006Ev, symObjAddr: 0x1AD4, symBinAddr: 0x1000035AC, symSize: 0x28 }
  - { offsetInCU: 0x147D1, offset: 0x147D1, size: 0x8, addend: 0x0, symName: __ZNSt3__16vectorINS_12basic_stringIcNS_11char_traitsIcEENS_9allocatorIcEEEENS4_IS6_EEE9__end_capB7v160006Ev, symObjAddr: 0x1AFC, symBinAddr: 0x1000035D4, symSize: 0x28 }
  - { offsetInCU: 0x147F7, offset: 0x147F7, size: 0x8, addend: 0x0, symName: __ZNKSt3__16vectorINS_12basic_stringIcNS_11char_traitsIcEENS_9allocatorIcEEEENS4_IS6_EEE14__annotate_newB7v160006Em, symObjAddr: 0x1B24, symBinAddr: 0x1000035FC, symSize: 0xC8 }
  - { offsetInCU: 0x1482C, offset: 0x1482C, size: 0x8, addend: 0x0, symName: __ZNSt3__116allocator_traitsINS_9allocatorINS_12basic_stringIcNS_11char_traitsIcEENS1_IcEEEEEEE8max_sizeB7v160006IS7_vEEmRKS7_, symObjAddr: 0x1C18, symBinAddr: 0x1000036F0, symSize: 0x24 }
  - { offsetInCU: 0x1485A, offset: 0x1485A, size: 0x8, addend: 0x0, symName: __ZNSt3__114numeric_limitsIlE3maxB7v160006Ev, symObjAddr: 0x1C3C, symBinAddr: 0x100003714, symSize: 0x14 }
  - { offsetInCU: 0x14878, offset: 0x14878, size: 0x8, addend: 0x0, symName: __ZNKSt3__16__lessImmEclB7v160006ERKmS3_, symObjAddr: 0x1CB0, symBinAddr: 0x100003788, symSize: 0x34 }
  - { offsetInCU: 0x148BA, offset: 0x148BA, size: 0x8, addend: 0x0, symName: __ZNKSt3__19allocatorINS_12basic_stringIcNS_11char_traitsIcEENS0_IcEEEEE8max_sizeB7v160006Ev, symObjAddr: 0x1CE4, symBinAddr: 0x1000037BC, symSize: 0x18 }
  - { offsetInCU: 0x148E0, offset: 0x148E0, size: 0x8, addend: 0x0, symName: __ZNSt3__123__libcpp_numeric_limitsIlLb1EE3maxB7v160006Ev, symObjAddr: 0x1CFC, symBinAddr: 0x1000037D4, symSize: 0x8 }
  - { offsetInCU: 0x148F4, offset: 0x148F4, size: 0x8, addend: 0x0, symName: __ZNSt12length_errorC1B7v160006EPKc, symObjAddr: 0x1D68, symBinAddr: 0x100003840, symSize: 0x34 }
  - { offsetInCU: 0x1492C, offset: 0x1492C, size: 0x8, addend: 0x0, symName: __ZNSt12length_errorC2B7v160006EPKc, symObjAddr: 0x1D9C, symBinAddr: 0x100003874, symSize: 0x4C }
  - { offsetInCU: 0x14964, offset: 0x14964, size: 0x8, addend: 0x0, symName: __ZNSt3__19allocatorINS_12basic_stringIcNS_11char_traitsIcEENS0_IcEEEEE8allocateB7v160006Em, symObjAddr: 0x1DE8, symBinAddr: 0x1000038C0, symSize: 0x5C }
  - { offsetInCU: 0x14998, offset: 0x14998, size: 0x8, addend: 0x0, symName: __ZNSt3__117__compressed_pairIPNS_12basic_stringIcNS_11char_traitsIcEENS_9allocatorIcEEEENS4_IS6_EEE6secondB7v160006Ev, symObjAddr: 0x1EC4, symBinAddr: 0x10000399C, symSize: 0x24 }
  - { offsetInCU: 0x149BE, offset: 0x149BE, size: 0x8, addend: 0x0, symName: __ZNSt3__122__compressed_pair_elemINS_9allocatorINS_12basic_stringIcNS_11char_traitsIcEENS1_IcEEEEEELi1ELb1EE5__getB7v160006Ev, symObjAddr: 0x1EE8, symBinAddr: 0x1000039C0, symSize: 0x14 }
  - { offsetInCU: 0x149E4, offset: 0x149E4, size: 0x8, addend: 0x0, symName: __ZNSt3__117__compressed_pairIPNS_12basic_stringIcNS_11char_traitsIcEENS_9allocatorIcEEEENS4_IS6_EEE5firstB7v160006Ev, symObjAddr: 0x1EFC, symBinAddr: 0x1000039D4, symSize: 0x24 }
  - { offsetInCU: 0x14A0A, offset: 0x14A0A, size: 0x8, addend: 0x0, symName: __ZNSt3__122__compressed_pair_elemIPNS_12basic_stringIcNS_11char_traitsIcEENS_9allocatorIcEEEELi0ELb0EE5__getB7v160006Ev, symObjAddr: 0x1F20, symBinAddr: 0x1000039F8, symSize: 0x14 }
  - { offsetInCU: 0x14A30, offset: 0x14A30, size: 0x8, addend: 0x0, symName: __ZNKSt3__16vectorINS_12basic_stringIcNS_11char_traitsIcEENS_9allocatorIcEEEENS4_IS6_EEE31__annotate_contiguous_containerB7v160006EPKvSA_SA_SA_, symObjAddr: 0x1F34, symBinAddr: 0x100003A0C, symSize: 0x20 }
  - { offsetInCU: 0x14A86, offset: 0x14A86, size: 0x8, addend: 0x0, symName: __ZNKSt3__16vectorINS_12basic_stringIcNS_11char_traitsIcEENS_9allocatorIcEEEENS4_IS6_EEE4dataB7v160006Ev, symObjAddr: 0x1F54, symBinAddr: 0x100003A2C, symSize: 0x28 }
  - { offsetInCU: 0x14AAC, offset: 0x14AAC, size: 0x8, addend: 0x0, symName: __ZNKSt3__16vectorINS_12basic_stringIcNS_11char_traitsIcEENS_9allocatorIcEEEENS4_IS6_EEE8capacityB7v160006Ev, symObjAddr: 0x1F7C, symBinAddr: 0x100003A54, symSize: 0x40 }
  - { offsetInCU: 0x14AD2, offset: 0x14AD2, size: 0x8, addend: 0x0, symName: __ZNKSt3__16vectorINS_12basic_stringIcNS_11char_traitsIcEENS_9allocatorIcEEEENS4_IS6_EEE9__end_capB7v160006Ev, symObjAddr: 0x1FD0, symBinAddr: 0x100003AA8, symSize: 0x28 }
  - { offsetInCU: 0x14AF8, offset: 0x14AF8, size: 0x8, addend: 0x0, symName: __ZNKSt3__117__compressed_pairIPNS_12basic_stringIcNS_11char_traitsIcEENS_9allocatorIcEEEENS4_IS6_EEE5firstB7v160006Ev, symObjAddr: 0x1FF8, symBinAddr: 0x100003AD0, symSize: 0x24 }
  - { offsetInCU: 0x14B1E, offset: 0x14B1E, size: 0x8, addend: 0x0, symName: __ZNKSt3__122__compressed_pair_elemIPNS_12basic_stringIcNS_11char_traitsIcEENS_9allocatorIcEEEELi0ELb0EE5__getB7v160006Ev, symObjAddr: 0x201C, symBinAddr: 0x100003AF4, symSize: 0x14 }
  - { offsetInCU: 0x14B5D, offset: 0x14B5D, size: 0x8, addend: 0x0, symName: __ZNSt3__16vectorINS_12basic_stringIcNS_11char_traitsIcEENS_9allocatorIcEEEENS4_IS6_EEE21_ConstructTransactionC1B7v160006ERS8_m, symObjAddr: 0x2030, symBinAddr: 0x100003B08, symSize: 0x3C }
  - { offsetInCU: 0x14BA5, offset: 0x14BA5, size: 0x8, addend: 0x0, symName: __ZNSt3__16vectorINS_12basic_stringIcNS_11char_traitsIcEENS_9allocatorIcEEEENS4_IS6_EEE21_ConstructTransactionD1B7v160006Ev, symObjAddr: 0x2160, symBinAddr: 0x100003C38, symSize: 0x2C }
  - { offsetInCU: 0x14BCF, offset: 0x14BCF, size: 0x8, addend: 0x0, symName: __ZNSt3__16vectorINS_12basic_stringIcNS_11char_traitsIcEENS_9allocatorIcEEEENS4_IS6_EEE21_ConstructTransactionC2B7v160006ERS8_m, symObjAddr: 0x218C, symBinAddr: 0x100003C64, symSize: 0x4C }
  - { offsetInCU: 0x14C17, offset: 0x14C17, size: 0x8, addend: 0x0, symName: __ZNSt3__129_AllocatorDestroyRangeReverseINS_9allocatorINS_12basic_stringIcNS_11char_traitsIcEENS1_IcEEEEEEPS6_EC1B7v160006ERS7_RS8_SB_, symObjAddr: 0x2224, symBinAddr: 0x100003CFC, symSize: 0x44 }
  - { offsetInCU: 0x14C6E, offset: 0x14C6E, size: 0x8, addend: 0x0, symName: __ZNSt3__116allocator_traitsINS_9allocatorINS_12basic_stringIcNS_11char_traitsIcEENS1_IcEEEEEEE9constructB7v160006IS6_JRS6_EvEEvRS7_PT_DpOT0_, symObjAddr: 0x2268, symBinAddr: 0x100003D40, symSize: 0x34 }
  - { offsetInCU: 0x14CC5, offset: 0x14CC5, size: 0x8, addend: 0x0, symName: __ZNSt3__128__exception_guard_exceptionsINS_29_AllocatorDestroyRangeReverseINS_9allocatorINS_12basic_stringIcNS_11char_traitsIcEENS2_IcEEEEEEPS7_EEE10__completeB7v160006Ev, symObjAddr: 0x229C, symBinAddr: 0x100003D74, symSize: 0x1C }
  - { offsetInCU: 0x14CEB, offset: 0x14CEB, size: 0x8, addend: 0x0, symName: __ZNSt3__128__exception_guard_exceptionsINS_29_AllocatorDestroyRangeReverseINS_9allocatorINS_12basic_stringIcNS_11char_traitsIcEENS2_IcEEEEEEPS7_EEED1B7v160006Ev, symObjAddr: 0x22B8, symBinAddr: 0x100003D90, symSize: 0x2C }
  - { offsetInCU: 0x14D15, offset: 0x14D15, size: 0x8, addend: 0x0, symName: __ZNSt3__128__exception_guard_exceptionsINS_29_AllocatorDestroyRangeReverseINS_9allocatorINS_12basic_stringIcNS_11char_traitsIcEENS2_IcEEEEEEPS7_EEEC1B7v160006ESA_, symObjAddr: 0x22E4, symBinAddr: 0x100003DBC, symSize: 0x34 }
  - { offsetInCU: 0x14D4E, offset: 0x14D4E, size: 0x8, addend: 0x0, symName: __ZNSt3__128__exception_guard_exceptionsINS_29_AllocatorDestroyRangeReverseINS_9allocatorINS_12basic_stringIcNS_11char_traitsIcEENS2_IcEEEEEEPS7_EEEC2B7v160006ESA_, symObjAddr: 0x2318, symBinAddr: 0x100003DF0, symSize: 0x30 }
  - { offsetInCU: 0x14D87, offset: 0x14D87, size: 0x8, addend: 0x0, symName: __ZNSt3__129_AllocatorDestroyRangeReverseINS_9allocatorINS_12basic_stringIcNS_11char_traitsIcEENS1_IcEEEEEEPS6_EC2B7v160006ERS7_RS8_SB_, symObjAddr: 0x2348, symBinAddr: 0x100003E20, symSize: 0x38 }
  - { offsetInCU: 0x14DDE, offset: 0x14DDE, size: 0x8, addend: 0x0, symName: __ZNSt3__19allocatorINS_12basic_stringIcNS_11char_traitsIcEENS0_IcEEEEE9constructB7v160006IS5_JRS5_EEEvPT_DpOT0_, symObjAddr: 0x2380, symBinAddr: 0x100003E58, symSize: 0x30 }
  - { offsetInCU: 0x14E34, offset: 0x14E34, size: 0x8, addend: 0x0, symName: __ZNSt3__128__exception_guard_exceptionsINS_29_AllocatorDestroyRangeReverseINS_9allocatorINS_12basic_stringIcNS_11char_traitsIcEENS2_IcEEEEEEPS7_EEED2B7v160006Ev, symObjAddr: 0x23B0, symBinAddr: 0x100003E88, symSize: 0x50 }
  - { offsetInCU: 0x14E5E, offset: 0x14E5E, size: 0x8, addend: 0x0, symName: __ZNKSt3__129_AllocatorDestroyRangeReverseINS_9allocatorINS_12basic_stringIcNS_11char_traitsIcEENS1_IcEEEEEEPS6_EclB7v160006Ev, symObjAddr: 0x2400, symBinAddr: 0x100003ED8, symSize: 0x68 }
  - { offsetInCU: 0x14E84, offset: 0x14E84, size: 0x8, addend: 0x0, symName: __ZNSt3__116reverse_iteratorIPNS_12basic_stringIcNS_11char_traitsIcEENS_9allocatorIcEEEEEC1B7v160006ES7_, symObjAddr: 0x24D8, symBinAddr: 0x100003FB0, symSize: 0x34 }
  - { offsetInCU: 0x14EBC, offset: 0x14EBC, size: 0x8, addend: 0x0, symName: __ZNSt3__116allocator_traitsINS_9allocatorINS_12basic_stringIcNS_11char_traitsIcEENS1_IcEEEEEEE7destroyB7v160006IS6_vEEvRS7_PT_, symObjAddr: 0x2554, symBinAddr: 0x10000402C, symSize: 0x2C }
  - { offsetInCU: 0x14EF9, offset: 0x14EF9, size: 0x8, addend: 0x0, symName: __ZNSt3__116reverse_iteratorIPNS_12basic_stringIcNS_11char_traitsIcEENS_9allocatorIcEEEEEppB7v160006Ev, symObjAddr: 0x25A4, symBinAddr: 0x10000407C, symSize: 0x20 }
  - { offsetInCU: 0x14F1F, offset: 0x14F1F, size: 0x8, addend: 0x0, symName: __ZNKSt3__116reverse_iteratorIPNS_12basic_stringIcNS_11char_traitsIcEENS_9allocatorIcEEEEE4baseB7v160006Ev, symObjAddr: 0x25C4, symBinAddr: 0x10000409C, symSize: 0x18 }
  - { offsetInCU: 0x14F45, offset: 0x14F45, size: 0x8, addend: 0x0, symName: __ZNSt3__19allocatorINS_12basic_stringIcNS_11char_traitsIcEENS0_IcEEEEE7destroyB7v160006EPS5_, symObjAddr: 0x25DC, symBinAddr: 0x1000040B4, symSize: 0x28 }
  - { offsetInCU: 0x14F7E, offset: 0x14F7E, size: 0x8, addend: 0x0, symName: __ZNSt3__119__to_address_helperINS_16reverse_iteratorIPNS_12basic_stringIcNS_11char_traitsIcEENS_9allocatorIcEEEEEEvE6__callB7v160006ERKS9_, symObjAddr: 0x2604, symBinAddr: 0x1000040DC, symSize: 0x38 }
  - { offsetInCU: 0x14FA1, offset: 0x14FA1, size: 0x8, addend: 0x0, symName: __ZNKSt3__116reverse_iteratorIPNS_12basic_stringIcNS_11char_traitsIcEENS_9allocatorIcEEEEEptB7v160006Ev, symObjAddr: 0x263C, symBinAddr: 0x100004114, symSize: 0x24 }
  - { offsetInCU: 0x14FC7, offset: 0x14FC7, size: 0x8, addend: 0x0, symName: __ZNKSt3__116reverse_iteratorIPNS_12basic_stringIcNS_11char_traitsIcEENS_9allocatorIcEEEEEdeB7v160006Ev, symObjAddr: 0x2660, symBinAddr: 0x100004138, symSize: 0x28 }
  - { offsetInCU: 0x14FFC, offset: 0x14FFC, size: 0x8, addend: 0x0, symName: __ZNSt3__116reverse_iteratorIPNS_12basic_stringIcNS_11char_traitsIcEENS_9allocatorIcEEEEEC2B7v160006ES7_, symObjAddr: 0x2688, symBinAddr: 0x100004160, symSize: 0x28 }
  - { offsetInCU: 0x15034, offset: 0x15034, size: 0x8, addend: 0x0, symName: __ZNSt3__16vectorINS_12basic_stringIcNS_11char_traitsIcEENS_9allocatorIcEEEENS4_IS6_EEE21_ConstructTransactionD2B7v160006Ev, symObjAddr: 0x26B0, symBinAddr: 0x100004188, symSize: 0x20 }
  - { offsetInCU: 0x1505E, offset: 0x1505E, size: 0x8, addend: 0x0, symName: __ZNSt3__128__exception_guard_exceptionsINS_6vectorINS_12basic_stringIcNS_11char_traitsIcEENS_9allocatorIcEEEENS5_IS7_EEE16__destroy_vectorEED2B7v160006Ev, symObjAddr: 0x26D0, symBinAddr: 0x1000041A8, symSize: 0x50 }
  - { offsetInCU: 0x15088, offset: 0x15088, size: 0x8, addend: 0x0, symName: __ZNSt3__16vectorINS_12basic_stringIcNS_11char_traitsIcEENS_9allocatorIcEEEENS4_IS6_EEE16__destroy_vectorclB7v160006Ev, symObjAddr: 0x2720, symBinAddr: 0x1000041F8, symSize: 0x9C }
  - { offsetInCU: 0x150AE, offset: 0x150AE, size: 0x8, addend: 0x0, symName: __ZNKSt3__16vectorINS_12basic_stringIcNS_11char_traitsIcEENS_9allocatorIcEEEENS4_IS6_EEE17__annotate_deleteB7v160006Ev, symObjAddr: 0x27BC, symBinAddr: 0x100004294, symSize: 0xD4 }
  - { offsetInCU: 0x150D4, offset: 0x150D4, size: 0x8, addend: 0x0, symName: __ZNSt3__16vectorINS_12basic_stringIcNS_11char_traitsIcEENS_9allocatorIcEEEENS4_IS6_EEE7__clearB7v160006Ev, symObjAddr: 0x28A0, symBinAddr: 0x100004378, symSize: 0x28 }
  - { offsetInCU: 0x150FA, offset: 0x150FA, size: 0x8, addend: 0x0, symName: __ZNSt3__116allocator_traitsINS_9allocatorINS_12basic_stringIcNS_11char_traitsIcEENS1_IcEEEEEEE10deallocateB7v160006ERS7_PS6_m, symObjAddr: 0x28C8, symBinAddr: 0x1000043A0, symSize: 0x34 }
  - { offsetInCU: 0x1513C, offset: 0x1513C, size: 0x8, addend: 0x0, symName: __ZNSt3__16vectorINS_12basic_stringIcNS_11char_traitsIcEENS_9allocatorIcEEEENS4_IS6_EEE22__base_destruct_at_endB7v160006EPS6_, symObjAddr: 0x28FC, symBinAddr: 0x1000043D4, symSize: 0x8C }
  - { offsetInCU: 0x15180, offset: 0x15180, size: 0x8, addend: 0x0, symName: __ZNSt3__19allocatorINS_12basic_stringIcNS_11char_traitsIcEENS0_IcEEEEE10deallocateB7v160006EPS5_m, symObjAddr: 0x2988, symBinAddr: 0x100004460, symSize: 0x44 }
  - { offsetInCU: 0x151C2, offset: 0x151C2, size: 0x8, addend: 0x0, symName: __ZNSt3__14pairIKdNS0_INS_12basic_stringIcNS_11char_traitsIcEENS_9allocatorIcEEEENS_6vectorIS7_NS5_IS7_EEEEEEEC2B7v160006ILb1ELPv0EEERS1_RKSB_, symObjAddr: 0x2A48, symBinAddr: 0x100004520, symSize: 0x48 }
  - { offsetInCU: 0x15218, offset: 0x15218, size: 0x8, addend: 0x0, symName: __ZNSt3__14pairINS_12basic_stringIcNS_11char_traitsIcEENS_9allocatorIcEEEENS_6vectorIS6_NS4_IS6_EEEEEC1ERKSA_, symObjAddr: 0x2A90, symBinAddr: 0x100004568, symSize: 0x34 }
  - { offsetInCU: 0x1524D, offset: 0x1524D, size: 0x8, addend: 0x0, symName: __ZNSt3__14pairINS_12basic_stringIcNS_11char_traitsIcEENS_9allocatorIcEEEENS_6vectorIS6_NS4_IS6_EEEEEC2ERKSA_, symObjAddr: 0x2AC4, symBinAddr: 0x10000459C, symSize: 0x70 }
  - { offsetInCU: 0x15282, offset: 0x15282, size: 0x8, addend: 0x0, symName: __ZNSt3__14pairIKdNS0_INS_12basic_stringIcNS_11char_traitsIcEENS_9allocatorIcEEEENS_6vectorIS7_NS5_IS7_EEEEEEED2Ev, symObjAddr: 0x2B34, symBinAddr: 0x10000460C, symSize: 0x30 }
  - { offsetInCU: 0x152AE, offset: 0x152AE, size: 0x8, addend: 0x0, symName: __ZNSt3__14pairINS_12basic_stringIcNS_11char_traitsIcEENS_9allocatorIcEEEENS_6vectorIS6_NS4_IS6_EEEEED2Ev, symObjAddr: 0x2B64, symBinAddr: 0x10000463C, symSize: 0x38 }
  - { offsetInCU: 0x152DA, offset: 0x152DA, size: 0x8, addend: 0x0, symName: __ZNSt3__14pairIKdNS0_INS_12basic_stringIcNS_11char_traitsIcEENS_9allocatorIcEEEENS_6vectorIS7_NS5_IS7_EEEEEEEC2ERKSC_, symObjAddr: 0x2B9C, symBinAddr: 0x100004674, symSize: 0x48 }
  - { offsetInCU: 0x1530F, offset: 0x1530F, size: 0x8, addend: 0x0, symName: __ZNKSt3__111__wrap_iterIPNS_12basic_stringIcNS_11char_traitsIcEENS_9allocatorIcEEEEE4baseB7v160006Ev, symObjAddr: 0x2C2C, symBinAddr: 0x100004704, symSize: 0x18 }
  - { offsetInCU: 0x15335, offset: 0x15335, size: 0x8, addend: 0x0, symName: __ZNSt3__14pairIKNS_12basic_stringIcNS_11char_traitsIcEENS_9allocatorIcEEEES6_EC2B7v160006IRS6_SA_LPv0EEEOT_OT0_, symObjAddr: 0x2C44, symBinAddr: 0x10000471C, symSize: 0x70 }
  - { offsetInCU: 0x15393, offset: 0x15393, size: 0x8, addend: 0x0, symName: __ZNSt3__14pairIKNS_12basic_stringIcNS_11char_traitsIcEENS_9allocatorIcEEEES6_ED2Ev, symObjAddr: 0x2CB4, symBinAddr: 0x10000478C, symSize: 0x38 }
  - { offsetInCU: 0x153BF, offset: 0x153BF, size: 0x8, addend: 0x0, symName: __ZNSt3__14pairIKNS_12basic_stringIcNS_11char_traitsIcEENS_9allocatorIcEEEES6_EC2ERKS8_, symObjAddr: 0x2CEC, symBinAddr: 0x1000047C4, symSize: 0x70 }
  - { offsetInCU: 0x153F4, offset: 0x153F4, size: 0x8, addend: 0x0, symName: __ZNSt3__112basic_stringIcNS_11char_traitsIcEENS_9allocatorIcEEEC2B7v160006Ev, symObjAddr: 0x2D5C, symBinAddr: 0x100004834, symSize: 0x54 }
  - { offsetInCU: 0x15423, offset: 0x15423, size: 0x8, addend: 0x0, symName: __ZNSt3__117__compressed_pairINS_12basic_stringIcNS_11char_traitsIcEENS_9allocatorIcEEE5__repES5_EC1B7v160006INS_18__default_init_tagESA_EEOT_OT0_, symObjAddr: 0x2DB0, symBinAddr: 0x100004888, symSize: 0x3C }
  - { offsetInCU: 0x1547B, offset: 0x1547B, size: 0x8, addend: 0x0, symName: __ZNSt3__112basic_stringIcNS_11char_traitsIcEENS_9allocatorIcEEE14__default_initB7v160006Ev, symObjAddr: 0x2DFC, symBinAddr: 0x1000048D4, symSize: 0x40 }
  - { offsetInCU: 0x154A1, offset: 0x154A1, size: 0x8, addend: 0x0, symName: __ZNSt3__117__compressed_pairINS_12basic_stringIcNS_11char_traitsIcEENS_9allocatorIcEEE5__repES5_EC2B7v160006INS_18__default_init_tagESA_EEOT_OT0_, symObjAddr: 0x2E3C, symBinAddr: 0x100004914, symSize: 0x3C }
  - { offsetInCU: 0x154F9, offset: 0x154F9, size: 0x8, addend: 0x0, symName: __ZNSt3__122__compressed_pair_elemINS_12basic_stringIcNS_11char_traitsIcEENS_9allocatorIcEEE5__repELi0ELb0EEC2B7v160006ENS_18__default_init_tagE, symObjAddr: 0x2E78, symBinAddr: 0x100004950, symSize: 0x14 }
  - { offsetInCU: 0x1552E, offset: 0x1552E, size: 0x8, addend: 0x0, symName: __ZNSt3__122__compressed_pair_elemINS_9allocatorIcEELi1ELb1EEC2B7v160006ENS_18__default_init_tagE, symObjAddr: 0x2E8C, symBinAddr: 0x100004964, symSize: 0x2C }
  - { offsetInCU: 0x15563, offset: 0x15563, size: 0x8, addend: 0x0, symName: __ZNSt3__19allocatorIcEC2B7v160006Ev, symObjAddr: 0x2EB8, symBinAddr: 0x100004990, symSize: 0x2C }
  - { offsetInCU: 0x1558D, offset: 0x1558D, size: 0x8, addend: 0x0, symName: __ZNSt3__116__non_trivial_ifILb1ENS_9allocatorIcEEEC2B7v160006Ev, symObjAddr: 0x2EE4, symBinAddr: 0x1000049BC, symSize: 0x14 }
  - { offsetInCU: 0x155B7, offset: 0x155B7, size: 0x8, addend: 0x0, symName: __ZNSt3__117__compressed_pairINS_12basic_stringIcNS_11char_traitsIcEENS_9allocatorIcEEE5__repES5_E5firstB7v160006Ev, symObjAddr: 0x2EF8, symBinAddr: 0x1000049D0, symSize: 0x24 }
  - { offsetInCU: 0x155DD, offset: 0x155DD, size: 0x8, addend: 0x0, symName: __ZNSt3__122__compressed_pair_elemINS_12basic_stringIcNS_11char_traitsIcEENS_9allocatorIcEEE5__repELi0ELb0EE5__getB7v160006Ev, symObjAddr: 0x2F1C, symBinAddr: 0x1000049F4, symSize: 0x14 }
  - { offsetInCU: 0x15603, offset: 0x15603, size: 0x8, addend: 0x0, symName: __ZNSt3__13mapIdNS_4pairINS_12basic_stringIcNS_11char_traitsIcEENS_9allocatorIcEEEENS_6vectorIS7_NS5_IS7_EEEEEENS_4lessIdEENS5_INS1_IKdSB_EEEEEC2B7v160006Ev, symObjAddr: 0x2F30, symBinAddr: 0x100004A08, symSize: 0x40 }
  - { offsetInCU: 0x1562D, offset: 0x1562D, size: 0x8, addend: 0x0, symName: __ZNSt3__119__map_value_compareIdNS_12__value_typeIdNS_4pairINS_12basic_stringIcNS_11char_traitsIcEENS_9allocatorIcEEEENS_6vectorIS8_NS6_IS8_EEEEEEEENS_4lessIdEELb1EEC1B7v160006ESF_, symObjAddr: 0x2F70, symBinAddr: 0x100004A48, symSize: 0x2C }
  - { offsetInCU: 0x15666, offset: 0x15666, size: 0x8, addend: 0x0, symName: __ZNSt3__16__treeINS_12__value_typeIdNS_4pairINS_12basic_stringIcNS_11char_traitsIcEENS_9allocatorIcEEEENS_6vectorIS8_NS6_IS8_EEEEEEEENS_19__map_value_compareIdSD_NS_4lessIdEELb1EEENS6_ISD_EEEC1ERKSH_, symObjAddr: 0x2F9C, symBinAddr: 0x100004A74, symSize: 0x34 }
  - { offsetInCU: 0x156A1, offset: 0x156A1, size: 0x8, addend: 0x0, symName: __ZNSt3__119__map_value_compareIdNS_12__value_typeIdNS_4pairINS_12basic_stringIcNS_11char_traitsIcEENS_9allocatorIcEEEENS_6vectorIS8_NS6_IS8_EEEEEEEENS_4lessIdEELb1EEC2B7v160006ESF_, symObjAddr: 0x2FD0, symBinAddr: 0x100004AA8, symSize: 0x14 }
  - { offsetInCU: 0x156DA, offset: 0x156DA, size: 0x8, addend: 0x0, symName: __ZNSt3__16__treeINS_12__value_typeIdNS_4pairINS_12basic_stringIcNS_11char_traitsIcEENS_9allocatorIcEEEENS_6vectorIS8_NS6_IS8_EEEEEEEENS_19__map_value_compareIdSD_NS_4lessIdEELb1EEENS6_ISD_EEEC2ERKSH_, symObjAddr: 0x2FE4, symBinAddr: 0x100004ABC, symSize: 0x7C }
  - { offsetInCU: 0x15715, offset: 0x15715, size: 0x8, addend: 0x0, symName: __ZNSt3__117__compressed_pairINS_15__tree_end_nodeIPNS_16__tree_node_baseIPvEEEENS_9allocatorINS_11__tree_nodeINS_12__value_typeIdNS_4pairINS_12basic_stringIcNS_11char_traitsIcEENS7_IcEEEENS_6vectorISF_NS7_ISF_EEEEEEEES3_EEEEEC1B7v160006ILb1EvEEv, symObjAddr: 0x3060, symBinAddr: 0x100004B38, symSize: 0x2C }
  - { offsetInCU: 0x1574F, offset: 0x1574F, size: 0x8, addend: 0x0, symName: __ZNSt3__117__compressed_pairImNS_19__map_value_compareIdNS_12__value_typeIdNS_4pairINS_12basic_stringIcNS_11char_traitsIcEENS_9allocatorIcEEEENS_6vectorIS9_NS7_IS9_EEEEEEEENS_4lessIdEELb1EEEEC1B7v160006IiRKSH_EEOT_OT0_, symObjAddr: 0x308C, symBinAddr: 0x100004B64, symSize: 0x3C }
  - { offsetInCU: 0x157A7, offset: 0x157A7, size: 0x8, addend: 0x0, symName: __ZNSt3__16__treeINS_12__value_typeIdNS_4pairINS_12basic_stringIcNS_11char_traitsIcEENS_9allocatorIcEEEENS_6vectorIS8_NS6_IS8_EEEEEEEENS_19__map_value_compareIdSD_NS_4lessIdEELb1EEENS6_ISD_EEE10__end_nodeB7v160006Ev, symObjAddr: 0x30C8, symBinAddr: 0x100004BA0, symSize: 0x2C }
  - { offsetInCU: 0x157CD, offset: 0x157CD, size: 0x8, addend: 0x0, symName: __ZNSt3__16__treeINS_12__value_typeIdNS_4pairINS_12basic_stringIcNS_11char_traitsIcEENS_9allocatorIcEEEENS_6vectorIS8_NS6_IS8_EEEEEEEENS_19__map_value_compareIdSD_NS_4lessIdEELb1EEENS6_ISD_EEE12__begin_nodeB7v160006Ev, symObjAddr: 0x30F4, symBinAddr: 0x100004BCC, symSize: 0x14 }
  - { offsetInCU: 0x157F3, offset: 0x157F3, size: 0x8, addend: 0x0, symName: __ZNSt3__117__compressed_pairINS_15__tree_end_nodeIPNS_16__tree_node_baseIPvEEEENS_9allocatorINS_11__tree_nodeINS_12__value_typeIdNS_4pairINS_12basic_stringIcNS_11char_traitsIcEENS7_IcEEEENS_6vectorISF_NS7_ISF_EEEEEEEES3_EEEEEC2B7v160006ILb1EvEEv, symObjAddr: 0x3108, symBinAddr: 0x100004BE0, symSize: 0x34 }
  - { offsetInCU: 0x15828, offset: 0x15828, size: 0x8, addend: 0x0, symName: __ZNSt3__122__compressed_pair_elemINS_15__tree_end_nodeIPNS_16__tree_node_baseIPvEEEELi0ELb0EEC2B7v160006ENS_16__value_init_tagE, symObjAddr: 0x313C, symBinAddr: 0x100004C14, symSize: 0x2C }
  - { offsetInCU: 0x1585D, offset: 0x1585D, size: 0x8, addend: 0x0, symName: __ZNSt3__122__compressed_pair_elemINS_9allocatorINS_11__tree_nodeINS_12__value_typeIdNS_4pairINS_12basic_stringIcNS_11char_traitsIcEENS1_IcEEEENS_6vectorIS9_NS1_IS9_EEEEEEEEPvEEEELi1ELb1EEC2B7v160006ENS_16__value_init_tagE, symObjAddr: 0x3168, symBinAddr: 0x100004C40, symSize: 0x2C }
  - { offsetInCU: 0x15892, offset: 0x15892, size: 0x8, addend: 0x0, symName: __ZNSt3__115__tree_end_nodeIPNS_16__tree_node_baseIPvEEEC1B7v160006Ev, symObjAddr: 0x3194, symBinAddr: 0x100004C6C, symSize: 0x2C }
  - { offsetInCU: 0x158BC, offset: 0x158BC, size: 0x8, addend: 0x0, symName: __ZNSt3__115__tree_end_nodeIPNS_16__tree_node_baseIPvEEEC2B7v160006Ev, symObjAddr: 0x31C0, symBinAddr: 0x100004C98, symSize: 0x18 }
  - { offsetInCU: 0x158E6, offset: 0x158E6, size: 0x8, addend: 0x0, symName: __ZNSt3__19allocatorINS_11__tree_nodeINS_12__value_typeIdNS_4pairINS_12basic_stringIcNS_11char_traitsIcEENS0_IcEEEENS_6vectorIS8_NS0_IS8_EEEEEEEEPvEEEC2B7v160006Ev, symObjAddr: 0x31D8, symBinAddr: 0x100004CB0, symSize: 0x2C }
  - { offsetInCU: 0x15910, offset: 0x15910, size: 0x8, addend: 0x0, symName: __ZNSt3__116__non_trivial_ifILb1ENS_9allocatorINS_11__tree_nodeINS_12__value_typeIdNS_4pairINS_12basic_stringIcNS_11char_traitsIcEENS1_IcEEEENS_6vectorIS9_NS1_IS9_EEEEEEEEPvEEEEEC2B7v160006Ev, symObjAddr: 0x3204, symBinAddr: 0x100004CDC, symSize: 0x14 }
  - { offsetInCU: 0x1593A, offset: 0x1593A, size: 0x8, addend: 0x0, symName: __ZNSt3__117__compressed_pairImNS_19__map_value_compareIdNS_12__value_typeIdNS_4pairINS_12basic_stringIcNS_11char_traitsIcEENS_9allocatorIcEEEENS_6vectorIS9_NS7_IS9_EEEEEEEENS_4lessIdEELb1EEEEC2B7v160006IiRKSH_EEOT_OT0_, symObjAddr: 0x3218, symBinAddr: 0x100004CF0, symSize: 0x44 }
  - { offsetInCU: 0x15992, offset: 0x15992, size: 0x8, addend: 0x0, symName: __ZNSt3__122__compressed_pair_elemImLi0ELb0EEC2B7v160006IivEEOT_, symObjAddr: 0x325C, symBinAddr: 0x100004D34, symSize: 0x24 }
  - { offsetInCU: 0x159D4, offset: 0x159D4, size: 0x8, addend: 0x0, symName: __ZNSt3__122__compressed_pair_elemINS_19__map_value_compareIdNS_12__value_typeIdNS_4pairINS_12basic_stringIcNS_11char_traitsIcEENS_9allocatorIcEEEENS_6vectorIS9_NS7_IS9_EEEEEEEENS_4lessIdEELb1EEELi1ELb1EEC2B7v160006IRKSH_vEEOT_, symObjAddr: 0x3280, symBinAddr: 0x100004D58, symSize: 0x18 }
  - { offsetInCU: 0x15A16, offset: 0x15A16, size: 0x8, addend: 0x0, symName: __ZNSt3__114pointer_traitsIPNS_15__tree_end_nodeIPNS_16__tree_node_baseIPvEEEEE10pointer_toB7v160006ERS6_, symObjAddr: 0x3298, symBinAddr: 0x100004D70, symSize: 0x14 }
  - { offsetInCU: 0x15A39, offset: 0x15A39, size: 0x8, addend: 0x0, symName: __ZNSt3__117__compressed_pairINS_15__tree_end_nodeIPNS_16__tree_node_baseIPvEEEENS_9allocatorINS_11__tree_nodeINS_12__value_typeIdNS_4pairINS_12basic_stringIcNS_11char_traitsIcEENS7_IcEEEENS_6vectorISF_NS7_ISF_EEEEEEEES3_EEEEE5firstB7v160006Ev, symObjAddr: 0x32AC, symBinAddr: 0x100004D84, symSize: 0x24 }
  - { offsetInCU: 0x15A5F, offset: 0x15A5F, size: 0x8, addend: 0x0, symName: __ZNSt3__122__compressed_pair_elemINS_15__tree_end_nodeIPNS_16__tree_node_baseIPvEEEELi0ELb0EE5__getB7v160006Ev, symObjAddr: 0x32D0, symBinAddr: 0x100004DA8, symSize: 0x14 }
  - { offsetInCU: 0x15A85, offset: 0x15A85, size: 0x8, addend: 0x0, symName: __ZNSt3__13mapIdNS_4pairINS_12basic_stringIcNS_11char_traitsIcEENS_9allocatorIcEEEENS_6vectorIS7_NS5_IS7_EEEEEENS_4lessIdEENS5_INS1_IKdSB_EEEEED2B7v160006Ev, symObjAddr: 0x32E4, symBinAddr: 0x100004DBC, symSize: 0x2C }
  - { offsetInCU: 0x15AAF, offset: 0x15AAF, size: 0x8, addend: 0x0, symName: __ZNSt3__16__treeINS_12__value_typeIdNS_4pairINS_12basic_stringIcNS_11char_traitsIcEENS_9allocatorIcEEEENS_6vectorIS8_NS6_IS8_EEEEEEEENS_19__map_value_compareIdSD_NS_4lessIdEELb1EEENS6_ISD_EEED1Ev, symObjAddr: 0x3310, symBinAddr: 0x100004DE8, symSize: 0x2C }
  - { offsetInCU: 0x15ADB, offset: 0x15ADB, size: 0x8, addend: 0x0, symName: __ZNSt3__16__treeINS_12__value_typeIdNS_4pairINS_12basic_stringIcNS_11char_traitsIcEENS_9allocatorIcEEEENS_6vectorIS8_NS6_IS8_EEEEEEEENS_19__map_value_compareIdSD_NS_4lessIdEELb1EEENS6_ISD_EEED2Ev, symObjAddr: 0x333C, symBinAddr: 0x100004E14, symSize: 0x38 }
  - { offsetInCU: 0x15B07, offset: 0x15B07, size: 0x8, addend: 0x0, symName: __ZNSt3__16__treeINS_12__value_typeIdNS_4pairINS_12basic_stringIcNS_11char_traitsIcEENS_9allocatorIcEEEENS_6vectorIS8_NS6_IS8_EEEEEEEENS_19__map_value_compareIdSD_NS_4lessIdEELb1EEENS6_ISD_EEE7destroyEPNS_11__tree_nodeISD_PvEE, symObjAddr: 0x3374, symBinAddr: 0x100004E4C, symSize: 0xAC }
  - { offsetInCU: 0x15B53, offset: 0x15B53, size: 0x8, addend: 0x0, symName: __ZNKSt3__16__treeINS_12__value_typeIdNS_4pairINS_12basic_stringIcNS_11char_traitsIcEENS_9allocatorIcEEEENS_6vectorIS8_NS6_IS8_EEEEEEEENS_19__map_value_compareIdSD_NS_4lessIdEELb1EEENS6_ISD_EEE6__rootB7v160006Ev, symObjAddr: 0x3420, symBinAddr: 0x100004EF8, symSize: 0x28 }
  - { offsetInCU: 0x15B79, offset: 0x15B79, size: 0x8, addend: 0x0, symName: __ZNSt3__16__treeINS_12__value_typeIdNS_4pairINS_12basic_stringIcNS_11char_traitsIcEENS_9allocatorIcEEEENS_6vectorIS8_NS6_IS8_EEEEEEEENS_19__map_value_compareIdSD_NS_4lessIdEELb1EEENS6_ISD_EEE12__node_allocB7v160006Ev, symObjAddr: 0x3448, symBinAddr: 0x100004F20, symSize: 0x28 }
  - { offsetInCU: 0x15B9F, offset: 0x15B9F, size: 0x8, addend: 0x0, symName: __ZNSt3__116allocator_traitsINS_9allocatorINS_11__tree_nodeINS_12__value_typeIdNS_4pairINS_12basic_stringIcNS_11char_traitsIcEENS1_IcEEEENS_6vectorIS9_NS1_IS9_EEEEEEEEPvEEEEE7destroyB7v160006INS4_IKdSD_EEvvEEvRSH_PT_, symObjAddr: 0x3470, symBinAddr: 0x100004F48, symSize: 0x28 }
  - { offsetInCU: 0x15BDA, offset: 0x15BDA, size: 0x8, addend: 0x0, symName: __ZNSt3__122__tree_key_value_typesINS_12__value_typeIdNS_4pairINS_12basic_stringIcNS_11char_traitsIcEENS_9allocatorIcEEEENS_6vectorIS8_NS6_IS8_EEEEEEEEE9__get_ptrB7v160006ERSD_, symObjAddr: 0x3498, symBinAddr: 0x100004F70, symSize: 0x24 }
  - { offsetInCU: 0x15BFE, offset: 0x15BFE, size: 0x8, addend: 0x0, symName: __ZNSt3__116allocator_traitsINS_9allocatorINS_11__tree_nodeINS_12__value_typeIdNS_4pairINS_12basic_stringIcNS_11char_traitsIcEENS1_IcEEEENS_6vectorIS9_NS1_IS9_EEEEEEEEPvEEEEE10deallocateB7v160006ERSH_PSG_m, symObjAddr: 0x34BC, symBinAddr: 0x100004F94, symSize: 0x34 }
  - { offsetInCU: 0x15C40, offset: 0x15C40, size: 0x8, addend: 0x0, symName: __ZNSt3__117__compressed_pairINS_15__tree_end_nodeIPNS_16__tree_node_baseIPvEEEENS_9allocatorINS_11__tree_nodeINS_12__value_typeIdNS_4pairINS_12basic_stringIcNS_11char_traitsIcEENS7_IcEEEENS_6vectorISF_NS7_ISF_EEEEEEEES3_EEEEE6secondB7v160006Ev, symObjAddr: 0x34F0, symBinAddr: 0x100004FC8, symSize: 0x24 }
  - { offsetInCU: 0x15C66, offset: 0x15C66, size: 0x8, addend: 0x0, symName: __ZNSt3__122__compressed_pair_elemINS_9allocatorINS_11__tree_nodeINS_12__value_typeIdNS_4pairINS_12basic_stringIcNS_11char_traitsIcEENS1_IcEEEENS_6vectorIS9_NS1_IS9_EEEEEEEEPvEEEELi1ELb1EE5__getB7v160006Ev, symObjAddr: 0x3514, symBinAddr: 0x100004FEC, symSize: 0x14 }
  - { offsetInCU: 0x15C8C, offset: 0x15C8C, size: 0x8, addend: 0x0, symName: __ZNSt3__112__value_typeIdNS_4pairINS_12basic_stringIcNS_11char_traitsIcEENS_9allocatorIcEEEENS_6vectorIS7_NS5_IS7_EEEEEEE11__get_valueB7v160006Ev, symObjAddr: 0x3528, symBinAddr: 0x100005000, symSize: 0x14 }
  - { offsetInCU: 0x15CB2, offset: 0x15CB2, size: 0x8, addend: 0x0, symName: __ZNSt3__19allocatorINS_11__tree_nodeINS_12__value_typeIdNS_4pairINS_12basic_stringIcNS_11char_traitsIcEENS0_IcEEEENS_6vectorIS8_NS0_IS8_EEEEEEEEPvEEE10deallocateB7v160006EPSF_m, symObjAddr: 0x353C, symBinAddr: 0x100005014, symSize: 0x44 }
  - { offsetInCU: 0x15CF4, offset: 0x15CF4, size: 0x8, addend: 0x0, symName: __ZNKSt3__16__treeINS_12__value_typeIdNS_4pairINS_12basic_stringIcNS_11char_traitsIcEENS_9allocatorIcEEEENS_6vectorIS8_NS6_IS8_EEEEEEEENS_19__map_value_compareIdSD_NS_4lessIdEELb1EEENS6_ISD_EEE10__end_nodeB7v160006Ev, symObjAddr: 0x3580, symBinAddr: 0x100005058, symSize: 0x2C }
  - { offsetInCU: 0x15D1A, offset: 0x15D1A, size: 0x8, addend: 0x0, symName: __ZNKSt3__117__compressed_pairINS_15__tree_end_nodeIPNS_16__tree_node_baseIPvEEEENS_9allocatorINS_11__tree_nodeINS_12__value_typeIdNS_4pairINS_12basic_stringIcNS_11char_traitsIcEENS7_IcEEEENS_6vectorISF_NS7_ISF_EEEEEEEES3_EEEEE5firstB7v160006Ev, symObjAddr: 0x35AC, symBinAddr: 0x100005084, symSize: 0x24 }
  - { offsetInCU: 0x15D40, offset: 0x15D40, size: 0x8, addend: 0x0, symName: __ZNKSt3__122__compressed_pair_elemINS_15__tree_end_nodeIPNS_16__tree_node_baseIPvEEEELi0ELb0EE5__getB7v160006Ev, symObjAddr: 0x35D0, symBinAddr: 0x1000050A8, symSize: 0x14 }
  - { offsetInCU: 0x15D66, offset: 0x15D66, size: 0x8, addend: 0x0, symName: __ZNSt3__13mapINS_12basic_stringIcNS_11char_traitsIcEENS_9allocatorIcEEEES6_NS_4lessIS6_EENS4_INS_4pairIKS6_S6_EEEEEC2B7v160006Ev, symObjAddr: 0x35E4, symBinAddr: 0x1000050BC, symSize: 0x40 }
  - { offsetInCU: 0x15D90, offset: 0x15D90, size: 0x8, addend: 0x0, symName: __ZNSt3__119__map_value_compareINS_12basic_stringIcNS_11char_traitsIcEENS_9allocatorIcEEEENS_12__value_typeIS6_S6_EENS_4lessIS6_EELb1EEC1B7v160006ESA_, symObjAddr: 0x3624, symBinAddr: 0x1000050FC, symSize: 0x2C }
  - { offsetInCU: 0x15DC9, offset: 0x15DC9, size: 0x8, addend: 0x0, symName: __ZNSt3__16__treeINS_12__value_typeINS_12basic_stringIcNS_11char_traitsIcEENS_9allocatorIcEEEES7_EENS_19__map_value_compareIS7_S8_NS_4lessIS7_EELb1EEENS5_IS8_EEEC1ERKSC_, symObjAddr: 0x3650, symBinAddr: 0x100005128, symSize: 0x34 }
  - { offsetInCU: 0x15E04, offset: 0x15E04, size: 0x8, addend: 0x0, symName: __ZNSt3__119__map_value_compareINS_12basic_stringIcNS_11char_traitsIcEENS_9allocatorIcEEEENS_12__value_typeIS6_S6_EENS_4lessIS6_EELb1EEC2B7v160006ESA_, symObjAddr: 0x3684, symBinAddr: 0x10000515C, symSize: 0x14 }
  - { offsetInCU: 0x15E3D, offset: 0x15E3D, size: 0x8, addend: 0x0, symName: __ZNSt3__16__treeINS_12__value_typeINS_12basic_stringIcNS_11char_traitsIcEENS_9allocatorIcEEEES7_EENS_19__map_value_compareIS7_S8_NS_4lessIS7_EELb1EEENS5_IS8_EEEC2ERKSC_, symObjAddr: 0x3698, symBinAddr: 0x100005170, symSize: 0x7C }
  - { offsetInCU: 0x15E78, offset: 0x15E78, size: 0x8, addend: 0x0, symName: __ZNSt3__117__compressed_pairINS_15__tree_end_nodeIPNS_16__tree_node_baseIPvEEEENS_9allocatorINS_11__tree_nodeINS_12__value_typeINS_12basic_stringIcNS_11char_traitsIcEENS7_IcEEEESE_EES3_EEEEEC1B7v160006ILb1EvEEv, symObjAddr: 0x3714, symBinAddr: 0x1000051EC, symSize: 0x2C }
  - { offsetInCU: 0x15EAD, offset: 0x15EAD, size: 0x8, addend: 0x0, symName: __ZNSt3__117__compressed_pairImNS_19__map_value_compareINS_12basic_stringIcNS_11char_traitsIcEENS_9allocatorIcEEEENS_12__value_typeIS7_S7_EENS_4lessIS7_EELb1EEEEC1B7v160006IiRKSC_EEOT_OT0_, symObjAddr: 0x3740, symBinAddr: 0x100005218, symSize: 0x3C }
  - { offsetInCU: 0x15F05, offset: 0x15F05, size: 0x8, addend: 0x0, symName: __ZNSt3__16__treeINS_12__value_typeINS_12basic_stringIcNS_11char_traitsIcEENS_9allocatorIcEEEES7_EENS_19__map_value_compareIS7_S8_NS_4lessIS7_EELb1EEENS5_IS8_EEE10__end_nodeB7v160006Ev, symObjAddr: 0x377C, symBinAddr: 0x100005254, symSize: 0x2C }
  - { offsetInCU: 0x15F2B, offset: 0x15F2B, size: 0x8, addend: 0x0, symName: __ZNSt3__16__treeINS_12__value_typeINS_12basic_stringIcNS_11char_traitsIcEENS_9allocatorIcEEEES7_EENS_19__map_value_compareIS7_S8_NS_4lessIS7_EELb1EEENS5_IS8_EEE12__begin_nodeB7v160006Ev, symObjAddr: 0x37A8, symBinAddr: 0x100005280, symSize: 0x14 }
  - { offsetInCU: 0x15F51, offset: 0x15F51, size: 0x8, addend: 0x0, symName: __ZNSt3__117__compressed_pairINS_15__tree_end_nodeIPNS_16__tree_node_baseIPvEEEENS_9allocatorINS_11__tree_nodeINS_12__value_typeINS_12basic_stringIcNS_11char_traitsIcEENS7_IcEEEESE_EES3_EEEEEC2B7v160006ILb1EvEEv, symObjAddr: 0x37BC, symBinAddr: 0x100005294, symSize: 0x34 }
  - { offsetInCU: 0x15F86, offset: 0x15F86, size: 0x8, addend: 0x0, symName: __ZNSt3__122__compressed_pair_elemINS_9allocatorINS_11__tree_nodeINS_12__value_typeINS_12basic_stringIcNS_11char_traitsIcEENS1_IcEEEES8_EEPvEEEELi1ELb1EEC2B7v160006ENS_16__value_init_tagE, symObjAddr: 0x37F0, symBinAddr: 0x1000052C8, symSize: 0x2C }
  - { offsetInCU: 0x15FBB, offset: 0x15FBB, size: 0x8, addend: 0x0, symName: __ZNSt3__19allocatorINS_11__tree_nodeINS_12__value_typeINS_12basic_stringIcNS_11char_traitsIcEENS0_IcEEEES7_EEPvEEEC2B7v160006Ev, symObjAddr: 0x381C, symBinAddr: 0x1000052F4, symSize: 0x2C }
  - { offsetInCU: 0x15FE5, offset: 0x15FE5, size: 0x8, addend: 0x0, symName: __ZNSt3__116__non_trivial_ifILb1ENS_9allocatorINS_11__tree_nodeINS_12__value_typeINS_12basic_stringIcNS_11char_traitsIcEENS1_IcEEEES8_EEPvEEEEEC2B7v160006Ev, symObjAddr: 0x3848, symBinAddr: 0x100005320, symSize: 0x14 }
  - { offsetInCU: 0x1600F, offset: 0x1600F, size: 0x8, addend: 0x0, symName: __ZNSt3__117__compressed_pairImNS_19__map_value_compareINS_12basic_stringIcNS_11char_traitsIcEENS_9allocatorIcEEEENS_12__value_typeIS7_S7_EENS_4lessIS7_EELb1EEEEC2B7v160006IiRKSC_EEOT_OT0_, symObjAddr: 0x385C, symBinAddr: 0x100005334, symSize: 0x44 }
  - { offsetInCU: 0x16067, offset: 0x16067, size: 0x8, addend: 0x0, symName: __ZNSt3__122__compressed_pair_elemINS_19__map_value_compareINS_12basic_stringIcNS_11char_traitsIcEENS_9allocatorIcEEEENS_12__value_typeIS7_S7_EENS_4lessIS7_EELb1EEELi1ELb1EEC2B7v160006IRKSC_vEEOT_, symObjAddr: 0x38A0, symBinAddr: 0x100005378, symSize: 0x18 }
  - { offsetInCU: 0x160A9, offset: 0x160A9, size: 0x8, addend: 0x0, symName: __ZNSt3__117__compressed_pairINS_15__tree_end_nodeIPNS_16__tree_node_baseIPvEEEENS_9allocatorINS_11__tree_nodeINS_12__value_typeINS_12basic_stringIcNS_11char_traitsIcEENS7_IcEEEESE_EES3_EEEEE5firstB7v160006Ev, symObjAddr: 0x38B8, symBinAddr: 0x100005390, symSize: 0x24 }
  - { offsetInCU: 0x160CF, offset: 0x160CF, size: 0x8, addend: 0x0, symName: __ZNSt3__13mapINS_12basic_stringIcNS_11char_traitsIcEENS_9allocatorIcEEEES6_NS_4lessIS6_EENS4_INS_4pairIKS6_S6_EEEEED2B7v160006Ev, symObjAddr: 0x38DC, symBinAddr: 0x1000053B4, symSize: 0x2C }
  - { offsetInCU: 0x160F9, offset: 0x160F9, size: 0x8, addend: 0x0, symName: __ZNSt3__16__treeINS_12__value_typeINS_12basic_stringIcNS_11char_traitsIcEENS_9allocatorIcEEEES7_EENS_19__map_value_compareIS7_S8_NS_4lessIS7_EELb1EEENS5_IS8_EEED1Ev, symObjAddr: 0x3908, symBinAddr: 0x1000053E0, symSize: 0x2C }
  - { offsetInCU: 0x16125, offset: 0x16125, size: 0x8, addend: 0x0, symName: __ZNSt3__16__treeINS_12__value_typeINS_12basic_stringIcNS_11char_traitsIcEENS_9allocatorIcEEEES7_EENS_19__map_value_compareIS7_S8_NS_4lessIS7_EELb1EEENS5_IS8_EEED2Ev, symObjAddr: 0x3934, symBinAddr: 0x10000540C, symSize: 0x38 }
  - { offsetInCU: 0x16151, offset: 0x16151, size: 0x8, addend: 0x0, symName: __ZNSt3__16__treeINS_12__value_typeINS_12basic_stringIcNS_11char_traitsIcEENS_9allocatorIcEEEES7_EENS_19__map_value_compareIS7_S8_NS_4lessIS7_EELb1EEENS5_IS8_EEE7destroyEPNS_11__tree_nodeIS8_PvEE, symObjAddr: 0x396C, symBinAddr: 0x100005444, symSize: 0xAC }
  - { offsetInCU: 0x1619D, offset: 0x1619D, size: 0x8, addend: 0x0, symName: __ZNKSt3__16__treeINS_12__value_typeINS_12basic_stringIcNS_11char_traitsIcEENS_9allocatorIcEEEES7_EENS_19__map_value_compareIS7_S8_NS_4lessIS7_EELb1EEENS5_IS8_EEE6__rootB7v160006Ev, symObjAddr: 0x3A18, symBinAddr: 0x1000054F0, symSize: 0x28 }
  - { offsetInCU: 0x161C3, offset: 0x161C3, size: 0x8, addend: 0x0, symName: __ZNSt3__16__treeINS_12__value_typeINS_12basic_stringIcNS_11char_traitsIcEENS_9allocatorIcEEEES7_EENS_19__map_value_compareIS7_S8_NS_4lessIS7_EELb1EEENS5_IS8_EEE12__node_allocB7v160006Ev, symObjAddr: 0x3A40, symBinAddr: 0x100005518, symSize: 0x28 }
  - { offsetInCU: 0x161E9, offset: 0x161E9, size: 0x8, addend: 0x0, symName: __ZNSt3__116allocator_traitsINS_9allocatorINS_11__tree_nodeINS_12__value_typeINS_12basic_stringIcNS_11char_traitsIcEENS1_IcEEEES8_EEPvEEEEE7destroyB7v160006INS_4pairIKS8_S8_EEvvEEvRSC_PT_, symObjAddr: 0x3A68, symBinAddr: 0x100005540, symSize: 0x28 }
  - { offsetInCU: 0x16224, offset: 0x16224, size: 0x8, addend: 0x0, symName: __ZNSt3__122__tree_key_value_typesINS_12__value_typeINS_12basic_stringIcNS_11char_traitsIcEENS_9allocatorIcEEEES7_EEE9__get_ptrB7v160006ERS8_, symObjAddr: 0x3A90, symBinAddr: 0x100005568, symSize: 0x24 }
  - { offsetInCU: 0x16248, offset: 0x16248, size: 0x8, addend: 0x0, symName: __ZNSt3__116allocator_traitsINS_9allocatorINS_11__tree_nodeINS_12__value_typeINS_12basic_stringIcNS_11char_traitsIcEENS1_IcEEEES8_EEPvEEEEE10deallocateB7v160006ERSC_PSB_m, symObjAddr: 0x3AB4, symBinAddr: 0x10000558C, symSize: 0x34 }
  - { offsetInCU: 0x1628A, offset: 0x1628A, size: 0x8, addend: 0x0, symName: __ZNSt3__117__compressed_pairINS_15__tree_end_nodeIPNS_16__tree_node_baseIPvEEEENS_9allocatorINS_11__tree_nodeINS_12__value_typeINS_12basic_stringIcNS_11char_traitsIcEENS7_IcEEEESE_EES3_EEEEE6secondB7v160006Ev, symObjAddr: 0x3AE8, symBinAddr: 0x1000055C0, symSize: 0x24 }
  - { offsetInCU: 0x162B0, offset: 0x162B0, size: 0x8, addend: 0x0, symName: __ZNSt3__122__compressed_pair_elemINS_9allocatorINS_11__tree_nodeINS_12__value_typeINS_12basic_stringIcNS_11char_traitsIcEENS1_IcEEEES8_EEPvEEEELi1ELb1EE5__getB7v160006Ev, symObjAddr: 0x3B0C, symBinAddr: 0x1000055E4, symSize: 0x14 }
  - { offsetInCU: 0x162D6, offset: 0x162D6, size: 0x8, addend: 0x0, symName: __ZNSt3__112__value_typeINS_12basic_stringIcNS_11char_traitsIcEENS_9allocatorIcEEEES6_E11__get_valueB7v160006Ev, symObjAddr: 0x3B20, symBinAddr: 0x1000055F8, symSize: 0x14 }
  - { offsetInCU: 0x162FC, offset: 0x162FC, size: 0x8, addend: 0x0, symName: __ZNSt3__19allocatorINS_11__tree_nodeINS_12__value_typeINS_12basic_stringIcNS_11char_traitsIcEENS0_IcEEEES7_EEPvEEE10deallocateB7v160006EPSA_m, symObjAddr: 0x3B34, symBinAddr: 0x10000560C, symSize: 0x44 }
  - { offsetInCU: 0x1633E, offset: 0x1633E, size: 0x8, addend: 0x0, symName: __ZNKSt3__16__treeINS_12__value_typeINS_12basic_stringIcNS_11char_traitsIcEENS_9allocatorIcEEEES7_EENS_19__map_value_compareIS7_S8_NS_4lessIS7_EELb1EEENS5_IS8_EEE10__end_nodeB7v160006Ev, symObjAddr: 0x3B78, symBinAddr: 0x100005650, symSize: 0x2C }
  - { offsetInCU: 0x16364, offset: 0x16364, size: 0x8, addend: 0x0, symName: __ZNKSt3__117__compressed_pairINS_15__tree_end_nodeIPNS_16__tree_node_baseIPvEEEENS_9allocatorINS_11__tree_nodeINS_12__value_typeINS_12basic_stringIcNS_11char_traitsIcEENS7_IcEEEESE_EES3_EEEEE5firstB7v160006Ev, symObjAddr: 0x3BA4, symBinAddr: 0x10000567C, symSize: 0x24 }
  - { offsetInCU: 0x1638A, offset: 0x1638A, size: 0x8, addend: 0x0, symName: __ZNSt3__13mapINS_12basic_stringIcNS_11char_traitsIcEENS_9allocatorIcEEEEiNS_4lessIS6_EENS4_INS_4pairIKS6_iEEEEEC2B7v160006Ev, symObjAddr: 0x3BC8, symBinAddr: 0x1000056A0, symSize: 0x40 }
  - { offsetInCU: 0x163B4, offset: 0x163B4, size: 0x8, addend: 0x0, symName: __ZNSt3__119__map_value_compareINS_12basic_stringIcNS_11char_traitsIcEENS_9allocatorIcEEEENS_12__value_typeIS6_iEENS_4lessIS6_EELb1EEC1B7v160006ESA_, symObjAddr: 0x3C08, symBinAddr: 0x1000056E0, symSize: 0x2C }
  - { offsetInCU: 0x163ED, offset: 0x163ED, size: 0x8, addend: 0x0, symName: __ZNSt3__16__treeINS_12__value_typeINS_12basic_stringIcNS_11char_traitsIcEENS_9allocatorIcEEEEiEENS_19__map_value_compareIS7_S8_NS_4lessIS7_EELb1EEENS5_IS8_EEEC1ERKSC_, symObjAddr: 0x3C34, symBinAddr: 0x10000570C, symSize: 0x34 }
  - { offsetInCU: 0x16428, offset: 0x16428, size: 0x8, addend: 0x0, symName: __ZNSt3__119__map_value_compareINS_12basic_stringIcNS_11char_traitsIcEENS_9allocatorIcEEEENS_12__value_typeIS6_iEENS_4lessIS6_EELb1EEC2B7v160006ESA_, symObjAddr: 0x3C68, symBinAddr: 0x100005740, symSize: 0x14 }
  - { offsetInCU: 0x16461, offset: 0x16461, size: 0x8, addend: 0x0, symName: __ZNSt3__16__treeINS_12__value_typeINS_12basic_stringIcNS_11char_traitsIcEENS_9allocatorIcEEEEiEENS_19__map_value_compareIS7_S8_NS_4lessIS7_EELb1EEENS5_IS8_EEEC2ERKSC_, symObjAddr: 0x3C7C, symBinAddr: 0x100005754, symSize: 0x7C }
  - { offsetInCU: 0x1649C, offset: 0x1649C, size: 0x8, addend: 0x0, symName: __ZNSt3__117__compressed_pairINS_15__tree_end_nodeIPNS_16__tree_node_baseIPvEEEENS_9allocatorINS_11__tree_nodeINS_12__value_typeINS_12basic_stringIcNS_11char_traitsIcEENS7_IcEEEEiEES3_EEEEEC1B7v160006ILb1EvEEv, symObjAddr: 0x3CF8, symBinAddr: 0x1000057D0, symSize: 0x2C }
  - { offsetInCU: 0x164D1, offset: 0x164D1, size: 0x8, addend: 0x0, symName: __ZNSt3__117__compressed_pairImNS_19__map_value_compareINS_12basic_stringIcNS_11char_traitsIcEENS_9allocatorIcEEEENS_12__value_typeIS7_iEENS_4lessIS7_EELb1EEEEC1B7v160006IiRKSC_EEOT_OT0_, symObjAddr: 0x3D24, symBinAddr: 0x1000057FC, symSize: 0x3C }
  - { offsetInCU: 0x16529, offset: 0x16529, size: 0x8, addend: 0x0, symName: __ZNSt3__16__treeINS_12__value_typeINS_12basic_stringIcNS_11char_traitsIcEENS_9allocatorIcEEEEiEENS_19__map_value_compareIS7_S8_NS_4lessIS7_EELb1EEENS5_IS8_EEE10__end_nodeB7v160006Ev, symObjAddr: 0x3D60, symBinAddr: 0x100005838, symSize: 0x2C }
  - { offsetInCU: 0x1654F, offset: 0x1654F, size: 0x8, addend: 0x0, symName: __ZNSt3__16__treeINS_12__value_typeINS_12basic_stringIcNS_11char_traitsIcEENS_9allocatorIcEEEEiEENS_19__map_value_compareIS7_S8_NS_4lessIS7_EELb1EEENS5_IS8_EEE12__begin_nodeB7v160006Ev, symObjAddr: 0x3D8C, symBinAddr: 0x100005864, symSize: 0x14 }
  - { offsetInCU: 0x16575, offset: 0x16575, size: 0x8, addend: 0x0, symName: __ZNSt3__117__compressed_pairINS_15__tree_end_nodeIPNS_16__tree_node_baseIPvEEEENS_9allocatorINS_11__tree_nodeINS_12__value_typeINS_12basic_stringIcNS_11char_traitsIcEENS7_IcEEEEiEES3_EEEEEC2B7v160006ILb1EvEEv, symObjAddr: 0x3DA0, symBinAddr: 0x100005878, symSize: 0x34 }
  - { offsetInCU: 0x165AA, offset: 0x165AA, size: 0x8, addend: 0x0, symName: __ZNSt3__122__compressed_pair_elemINS_9allocatorINS_11__tree_nodeINS_12__value_typeINS_12basic_stringIcNS_11char_traitsIcEENS1_IcEEEEiEEPvEEEELi1ELb1EEC2B7v160006ENS_16__value_init_tagE, symObjAddr: 0x3DD4, symBinAddr: 0x1000058AC, symSize: 0x2C }
  - { offsetInCU: 0x165DF, offset: 0x165DF, size: 0x8, addend: 0x0, symName: __ZNSt3__19allocatorINS_11__tree_nodeINS_12__value_typeINS_12basic_stringIcNS_11char_traitsIcEENS0_IcEEEEiEEPvEEEC2B7v160006Ev, symObjAddr: 0x3E00, symBinAddr: 0x1000058D8, symSize: 0x2C }
  - { offsetInCU: 0x16609, offset: 0x16609, size: 0x8, addend: 0x0, symName: __ZNSt3__116__non_trivial_ifILb1ENS_9allocatorINS_11__tree_nodeINS_12__value_typeINS_12basic_stringIcNS_11char_traitsIcEENS1_IcEEEEiEEPvEEEEEC2B7v160006Ev, symObjAddr: 0x3E2C, symBinAddr: 0x100005904, symSize: 0x14 }
  - { offsetInCU: 0x16633, offset: 0x16633, size: 0x8, addend: 0x0, symName: __ZNSt3__117__compressed_pairImNS_19__map_value_compareINS_12basic_stringIcNS_11char_traitsIcEENS_9allocatorIcEEEENS_12__value_typeIS7_iEENS_4lessIS7_EELb1EEEEC2B7v160006IiRKSC_EEOT_OT0_, symObjAddr: 0x3E40, symBinAddr: 0x100005918, symSize: 0x44 }
  - { offsetInCU: 0x1668B, offset: 0x1668B, size: 0x8, addend: 0x0, symName: __ZNSt3__122__compressed_pair_elemINS_19__map_value_compareINS_12basic_stringIcNS_11char_traitsIcEENS_9allocatorIcEEEENS_12__value_typeIS7_iEENS_4lessIS7_EELb1EEELi1ELb1EEC2B7v160006IRKSC_vEEOT_, symObjAddr: 0x3E84, symBinAddr: 0x10000595C, symSize: 0x18 }
  - { offsetInCU: 0x166CD, offset: 0x166CD, size: 0x8, addend: 0x0, symName: __ZNSt3__117__compressed_pairINS_15__tree_end_nodeIPNS_16__tree_node_baseIPvEEEENS_9allocatorINS_11__tree_nodeINS_12__value_typeINS_12basic_stringIcNS_11char_traitsIcEENS7_IcEEEEiEES3_EEEEE5firstB7v160006Ev, symObjAddr: 0x3E9C, symBinAddr: 0x100005974, symSize: 0x24 }
  - { offsetInCU: 0x166F3, offset: 0x166F3, size: 0x8, addend: 0x0, symName: __ZNSt3__13mapINS_12basic_stringIcNS_11char_traitsIcEENS_9allocatorIcEEEEiNS_4lessIS6_EENS4_INS_4pairIKS6_iEEEEED2B7v160006Ev, symObjAddr: 0x3EC0, symBinAddr: 0x100005998, symSize: 0x2C }
  - { offsetInCU: 0x1671D, offset: 0x1671D, size: 0x8, addend: 0x0, symName: __ZNSt3__16__treeINS_12__value_typeINS_12basic_stringIcNS_11char_traitsIcEENS_9allocatorIcEEEEiEENS_19__map_value_compareIS7_S8_NS_4lessIS7_EELb1EEENS5_IS8_EEED1Ev, symObjAddr: 0x3EEC, symBinAddr: 0x1000059C4, symSize: 0x2C }
  - { offsetInCU: 0x16749, offset: 0x16749, size: 0x8, addend: 0x0, symName: __ZNSt3__16__treeINS_12__value_typeINS_12basic_stringIcNS_11char_traitsIcEENS_9allocatorIcEEEEiEENS_19__map_value_compareIS7_S8_NS_4lessIS7_EELb1EEENS5_IS8_EEED2Ev, symObjAddr: 0x3F18, symBinAddr: 0x1000059F0, symSize: 0x38 }
  - { offsetInCU: 0x16775, offset: 0x16775, size: 0x8, addend: 0x0, symName: __ZNSt3__16__treeINS_12__value_typeINS_12basic_stringIcNS_11char_traitsIcEENS_9allocatorIcEEEEiEENS_19__map_value_compareIS7_S8_NS_4lessIS7_EELb1EEENS5_IS8_EEE7destroyEPNS_11__tree_nodeIS8_PvEE, symObjAddr: 0x3F50, symBinAddr: 0x100005A28, symSize: 0xAC }
  - { offsetInCU: 0x167C1, offset: 0x167C1, size: 0x8, addend: 0x0, symName: __ZNKSt3__16__treeINS_12__value_typeINS_12basic_stringIcNS_11char_traitsIcEENS_9allocatorIcEEEEiEENS_19__map_value_compareIS7_S8_NS_4lessIS7_EELb1EEENS5_IS8_EEE6__rootB7v160006Ev, symObjAddr: 0x3FFC, symBinAddr: 0x100005AD4, symSize: 0x28 }
  - { offsetInCU: 0x167E7, offset: 0x167E7, size: 0x8, addend: 0x0, symName: __ZNSt3__16__treeINS_12__value_typeINS_12basic_stringIcNS_11char_traitsIcEENS_9allocatorIcEEEEiEENS_19__map_value_compareIS7_S8_NS_4lessIS7_EELb1EEENS5_IS8_EEE12__node_allocB7v160006Ev, symObjAddr: 0x4024, symBinAddr: 0x100005AFC, symSize: 0x28 }
  - { offsetInCU: 0x1680D, offset: 0x1680D, size: 0x8, addend: 0x0, symName: __ZNSt3__116allocator_traitsINS_9allocatorINS_11__tree_nodeINS_12__value_typeINS_12basic_stringIcNS_11char_traitsIcEENS1_IcEEEEiEEPvEEEEE7destroyB7v160006INS_4pairIKS8_iEEvvEEvRSC_PT_, symObjAddr: 0x404C, symBinAddr: 0x100005B24, symSize: 0x28 }
  - { offsetInCU: 0x16848, offset: 0x16848, size: 0x8, addend: 0x0, symName: __ZNSt3__122__tree_key_value_typesINS_12__value_typeINS_12basic_stringIcNS_11char_traitsIcEENS_9allocatorIcEEEEiEEE9__get_ptrB7v160006ERS8_, symObjAddr: 0x4074, symBinAddr: 0x100005B4C, symSize: 0x24 }
  - { offsetInCU: 0x1686C, offset: 0x1686C, size: 0x8, addend: 0x0, symName: __ZNSt3__116allocator_traitsINS_9allocatorINS_11__tree_nodeINS_12__value_typeINS_12basic_stringIcNS_11char_traitsIcEENS1_IcEEEEiEEPvEEEEE10deallocateB7v160006ERSC_PSB_m, symObjAddr: 0x4098, symBinAddr: 0x100005B70, symSize: 0x34 }
  - { offsetInCU: 0x168AE, offset: 0x168AE, size: 0x8, addend: 0x0, symName: __ZNSt3__117__compressed_pairINS_15__tree_end_nodeIPNS_16__tree_node_baseIPvEEEENS_9allocatorINS_11__tree_nodeINS_12__value_typeINS_12basic_stringIcNS_11char_traitsIcEENS7_IcEEEEiEES3_EEEEE6secondB7v160006Ev, symObjAddr: 0x40CC, symBinAddr: 0x100005BA4, symSize: 0x24 }
  - { offsetInCU: 0x168D4, offset: 0x168D4, size: 0x8, addend: 0x0, symName: __ZNSt3__122__compressed_pair_elemINS_9allocatorINS_11__tree_nodeINS_12__value_typeINS_12basic_stringIcNS_11char_traitsIcEENS1_IcEEEEiEEPvEEEELi1ELb1EE5__getB7v160006Ev, symObjAddr: 0x40F0, symBinAddr: 0x100005BC8, symSize: 0x14 }
  - { offsetInCU: 0x168FA, offset: 0x168FA, size: 0x8, addend: 0x0, symName: __ZNSt3__112__value_typeINS_12basic_stringIcNS_11char_traitsIcEENS_9allocatorIcEEEEiE11__get_valueB7v160006Ev, symObjAddr: 0x4104, symBinAddr: 0x100005BDC, symSize: 0x14 }
  - { offsetInCU: 0x16920, offset: 0x16920, size: 0x8, addend: 0x0, symName: __ZNSt3__19allocatorINS_11__tree_nodeINS_12__value_typeINS_12basic_stringIcNS_11char_traitsIcEENS0_IcEEEEiEEPvEEE10deallocateB7v160006EPSA_m, symObjAddr: 0x4118, symBinAddr: 0x100005BF0, symSize: 0x40 }
  - { offsetInCU: 0x16962, offset: 0x16962, size: 0x8, addend: 0x0, symName: __ZNKSt3__16__treeINS_12__value_typeINS_12basic_stringIcNS_11char_traitsIcEENS_9allocatorIcEEEEiEENS_19__map_value_compareIS7_S8_NS_4lessIS7_EELb1EEENS5_IS8_EEE10__end_nodeB7v160006Ev, symObjAddr: 0x4158, symBinAddr: 0x100005C30, symSize: 0x2C }
  - { offsetInCU: 0x16988, offset: 0x16988, size: 0x8, addend: 0x0, symName: __ZNKSt3__117__compressed_pairINS_15__tree_end_nodeIPNS_16__tree_node_baseIPvEEEENS_9allocatorINS_11__tree_nodeINS_12__value_typeINS_12basic_stringIcNS_11char_traitsIcEENS7_IcEEEEiEES3_EEEEE5firstB7v160006Ev, symObjAddr: 0x4184, symBinAddr: 0x100005C5C, symSize: 0x24 }
  - { offsetInCU: 0x16A4B, offset: 0x16A4B, size: 0x8, addend: 0x0, symName: __ZNKSt3__113basic_istreamIcNS_11char_traitsIcEEE6sentrycvbB7v160006Ev, symObjAddr: 0x41A8, symBinAddr: 0x100005C80, symSize: 0x1C }
  - { offsetInCU: 0x16A71, offset: 0x16A71, size: 0x8, addend: 0x0, symName: __ZNSt3__112basic_stringIcNS_11char_traitsIcEENS_9allocatorIcEEE5clearB7v160006Ev, symObjAddr: 0x41C4, symBinAddr: 0x100005C9C, symSize: 0x88 }
  - { offsetInCU: 0x16A99, offset: 0x16A99, size: 0x8, addend: 0x0, symName: __ZNKSt3__18ios_base5widthB7v160006Ev, symObjAddr: 0x424C, symBinAddr: 0x100005D24, symSize: 0x18 }
  - { offsetInCU: 0x16AC1, offset: 0x16AC1, size: 0x8, addend: 0x0, symName: __ZNKSt3__112basic_stringIcNS_11char_traitsIcEENS_9allocatorIcEEE8max_sizeB7v160006Ev, symObjAddr: 0x4264, symBinAddr: 0x100005D3C, symSize: 0xAC }
  - { offsetInCU: 0x16B13, offset: 0x16B13, size: 0x8, addend: 0x0, symName: __ZNKSt3__19basic_iosIcNS_11char_traitsIcEEE5rdbufB7v160006Ev, symObjAddr: 0x433C, symBinAddr: 0x100005E14, symSize: 0x24 }
  - { offsetInCU: 0x16B3B, offset: 0x16B3B, size: 0x8, addend: 0x0, symName: __ZNSt3__115basic_streambufIcNS_11char_traitsIcEEE5sgetcB7v160006Ev, symObjAddr: 0x4360, symBinAddr: 0x100005E38, symSize: 0x70 }
  - { offsetInCU: 0x16B61, offset: 0x16B61, size: 0x8, addend: 0x0, symName: __ZNSt3__111char_traitsIcE11eq_int_typeEii, symObjAddr: 0x43D0, symBinAddr: 0x100005EA8, symSize: 0x28 }
  - { offsetInCU: 0x16B92, offset: 0x16B92, size: 0x8, addend: 0x0, symName: __ZNSt3__111char_traitsIcE3eofEv, symObjAddr: 0x43F8, symBinAddr: 0x100005ED0, symSize: 0x8 }
  - { offsetInCU: 0x16BA6, offset: 0x16BA6, size: 0x8, addend: 0x0, symName: __ZNSt3__111char_traitsIcE12to_char_typeEi, symObjAddr: 0x4400, symBinAddr: 0x100005ED8, symSize: 0x18 }
  - { offsetInCU: 0x16BF6, offset: 0x16BF6, size: 0x8, addend: 0x0, symName: __ZNKSt3__15ctypeIcE2isB7v160006Ejc, symObjAddr: 0x4418, symBinAddr: 0x100005EF0, symSize: 0x7C }
  - { offsetInCU: 0x16C3A, offset: 0x16C3A, size: 0x8, addend: 0x0, symName: __ZNSt3__115basic_streambufIcNS_11char_traitsIcEEE6sbumpcB7v160006Ev, symObjAddr: 0x4494, symBinAddr: 0x100005F6C, symSize: 0x78 }
  - { offsetInCU: 0x16C60, offset: 0x16C60, size: 0x8, addend: 0x0, symName: __ZNSt3__18ios_base5widthB7v160006El, symObjAddr: 0x450C, symBinAddr: 0x100005FE4, symSize: 0x2C }
  - { offsetInCU: 0x16CA6, offset: 0x16CA6, size: 0x8, addend: 0x0, symName: __ZNSt3__18ios_base18__setstate_nothrowB7v160006Ej, symObjAddr: 0x4538, symBinAddr: 0x100006010, symSize: 0x64 }
  - { offsetInCU: 0x16CDB, offset: 0x16CDB, size: 0x8, addend: 0x0, symName: __ZNKSt3__19basic_iosIcNS_11char_traitsIcEEE10exceptionsB7v160006Ev, symObjAddr: 0x459C, symBinAddr: 0x100006074, symSize: 0x24 }
  - { offsetInCU: 0x16D01, offset: 0x16D01, size: 0x8, addend: 0x0, symName: __ZNSt3__19basic_iosIcNS_11char_traitsIcEEE8setstateB7v160006Ej, symObjAddr: 0x45C0, symBinAddr: 0x100006098, symSize: 0x2C }
  - { offsetInCU: 0x16D36, offset: 0x16D36, size: 0x8, addend: 0x0, symName: __ZNKSt3__112basic_stringIcNS_11char_traitsIcEENS_9allocatorIcEEE9__is_longB7v160006Ev, symObjAddr: 0x45FC, symBinAddr: 0x1000060D4, symSize: 0x38 }
  - { offsetInCU: 0x16D5C, offset: 0x16D5C, size: 0x8, addend: 0x0, symName: __ZNSt3__111char_traitsIcE6assignERcRKc, symObjAddr: 0x4634, symBinAddr: 0x10000610C, symSize: 0x24 }
  - { offsetInCU: 0x16D8D, offset: 0x16D8D, size: 0x8, addend: 0x0, symName: __ZNSt3__112basic_stringIcNS_11char_traitsIcEENS_9allocatorIcEEE18__get_long_pointerB7v160006Ev, symObjAddr: 0x4658, symBinAddr: 0x100006130, symSize: 0x28 }
  - { offsetInCU: 0x16DB3, offset: 0x16DB3, size: 0x8, addend: 0x0, symName: __ZNSt3__112basic_stringIcNS_11char_traitsIcEENS_9allocatorIcEEE15__set_long_sizeB7v160006Em, symObjAddr: 0x4680, symBinAddr: 0x100006158, symSize: 0x38 }
  - { offsetInCU: 0x16DE8, offset: 0x16DE8, size: 0x8, addend: 0x0, symName: __ZNSt3__112basic_stringIcNS_11char_traitsIcEENS_9allocatorIcEEE19__get_short_pointerB7v160006Ev, symObjAddr: 0x46B8, symBinAddr: 0x100006190, symSize: 0x28 }
  - { offsetInCU: 0x16E0E, offset: 0x16E0E, size: 0x8, addend: 0x0, symName: __ZNSt3__112basic_stringIcNS_11char_traitsIcEENS_9allocatorIcEEE16__set_short_sizeB7v160006Em, symObjAddr: 0x46E0, symBinAddr: 0x1000061B8, symSize: 0x78 }
  - { offsetInCU: 0x16E43, offset: 0x16E43, size: 0x8, addend: 0x0, symName: __ZNKSt3__117__compressed_pairINS_12basic_stringIcNS_11char_traitsIcEENS_9allocatorIcEEE5__repES5_E5firstB7v160006Ev, symObjAddr: 0x4758, symBinAddr: 0x100006230, symSize: 0x24 }
  - { offsetInCU: 0x16E69, offset: 0x16E69, size: 0x8, addend: 0x0, symName: __ZNKSt3__122__compressed_pair_elemINS_12basic_stringIcNS_11char_traitsIcEENS_9allocatorIcEEE5__repELi0ELb0EE5__getB7v160006Ev, symObjAddr: 0x477C, symBinAddr: 0x100006254, symSize: 0x14 }
  - { offsetInCU: 0x16E8F, offset: 0x16E8F, size: 0x8, addend: 0x0, symName: __ZNSt3__114pointer_traitsIPcE10pointer_toB7v160006ERc, symObjAddr: 0x4790, symBinAddr: 0x100006268, symSize: 0x14 }
  - { offsetInCU: 0x16EBC, offset: 0x16EBC, size: 0x8, addend: 0x0, symName: __ZNSt3__116allocator_traitsINS_9allocatorIcEEE8max_sizeB7v160006IS2_vEEmRKS2_, symObjAddr: 0x47A4, symBinAddr: 0x10000627C, symSize: 0x24 }
  - { offsetInCU: 0x16EEA, offset: 0x16EEA, size: 0x8, addend: 0x0, symName: __ZNKSt3__112basic_stringIcNS_11char_traitsIcEENS_9allocatorIcEEE7__allocB7v160006Ev, symObjAddr: 0x47C8, symBinAddr: 0x1000062A0, symSize: 0x24 }
  - { offsetInCU: 0x16F10, offset: 0x16F10, size: 0x8, addend: 0x0, symName: __ZNSt3__114numeric_limitsImE3maxB7v160006Ev, symObjAddr: 0x47EC, symBinAddr: 0x1000062C4, symSize: 0x14 }
  - { offsetInCU: 0x16F24, offset: 0x16F24, size: 0x8, addend: 0x0, symName: __ZNKSt3__19allocatorIcE8max_sizeB7v160006Ev, symObjAddr: 0x4800, symBinAddr: 0x1000062D8, symSize: 0x14 }
  - { offsetInCU: 0x16F4A, offset: 0x16F4A, size: 0x8, addend: 0x0, symName: __ZNKSt3__117__compressed_pairINS_12basic_stringIcNS_11char_traitsIcEENS_9allocatorIcEEE5__repES5_E6secondB7v160006Ev, symObjAddr: 0x4814, symBinAddr: 0x1000062EC, symSize: 0x24 }
  - { offsetInCU: 0x16F70, offset: 0x16F70, size: 0x8, addend: 0x0, symName: __ZNKSt3__122__compressed_pair_elemINS_9allocatorIcEELi1ELb1EE5__getB7v160006Ev, symObjAddr: 0x4838, symBinAddr: 0x100006310, symSize: 0x14 }
  - { offsetInCU: 0x16F96, offset: 0x16F96, size: 0x8, addend: 0x0, symName: __ZNSt3__123__libcpp_numeric_limitsImLb1EE3maxB7v160006Ev, symObjAddr: 0x484C, symBinAddr: 0x100006324, symSize: 0x8 }
  - { offsetInCU: 0x16FAA, offset: 0x16FAA, size: 0x8, addend: 0x0, symName: __ZNKSt3__18ios_base5rdbufB7v160006Ev, symObjAddr: 0x4854, symBinAddr: 0x10000632C, symSize: 0x18 }
  - { offsetInCU: 0x16FD0, offset: 0x16FD0, size: 0x8, addend: 0x0, symName: __ZNSt3__111char_traitsIcE11to_int_typeEc, symObjAddr: 0x486C, symBinAddr: 0x100006344, symSize: 0x14 }
  - { offsetInCU: 0x16FF2, offset: 0x16FF2, size: 0x8, addend: 0x0, symName: __Z7isasciii, symObjAddr: 0x4880, symBinAddr: 0x100006358, symSize: 0x24 }
  - { offsetInCU: 0x1701F, offset: 0x1701F, size: 0x8, addend: 0x0, symName: __ZNKSt3__18ios_base10exceptionsB7v160006Ev, symObjAddr: 0x48A4, symBinAddr: 0x10000637C, symSize: 0x18 }
  - { offsetInCU: 0x17047, offset: 0x17047, size: 0x8, addend: 0x0, symName: __ZNSt3__18ios_base8setstateB7v160006Ej, symObjAddr: 0x48BC, symBinAddr: 0x100006394, symSize: 0x34 }
  - { offsetInCU: 0x1707E, offset: 0x1707E, size: 0x8, addend: 0x0, symName: __ZNSt3__16__treeINS_12__value_typeINS_12basic_stringIcNS_11char_traitsIcEENS_9allocatorIcEEEEiEENS_19__map_value_compareIS7_S8_NS_4lessIS7_EELb1EEENS5_IS8_EEE15__insert_uniqueB7v160006EONS_4pairIKS7_iEE, symObjAddr: 0x48F0, symBinAddr: 0x1000063C8, symSize: 0x50 }
  - { offsetInCU: 0x170B3, offset: 0x170B3, size: 0x8, addend: 0x0, symName: __ZNSt3__14pairINS_14__map_iteratorINS_15__tree_iteratorINS_12__value_typeINS_12basic_stringIcNS_11char_traitsIcEENS_9allocatorIcEEEEiEEPNS_11__tree_nodeISA_PvEElEEEEbEC1B7v160006ISF_bLSC_0EEEONS0_IT_T0_EE, symObjAddr: 0x4940, symBinAddr: 0x100006418, symSize: 0x34 }
  - { offsetInCU: 0x17104, offset: 0x17104, size: 0x8, addend: 0x0, symName: __ZNSt3__16__treeINS_12__value_typeINS_12basic_stringIcNS_11char_traitsIcEENS_9allocatorIcEEEEiEENS_19__map_value_compareIS7_S8_NS_4lessIS7_EELb1EEENS5_IS8_EEE25__emplace_unique_key_argsIS7_JNS_4pairIKS7_iEEEEENSG_INS_15__tree_iteratorIS8_PNS_11__tree_nodeIS8_PvEElEEbEERKT_DpOT0_, symObjAddr: 0x4974, symBinAddr: 0x10000644C, symSize: 0xF0 }
  - { offsetInCU: 0x171B0, offset: 0x171B0, size: 0x8, addend: 0x0, symName: __ZNSt3__122__tree_key_value_typesINS_12__value_typeINS_12basic_stringIcNS_11char_traitsIcEENS_9allocatorIcEEEEiEEE9__get_keyB7v160006INS_4pairIKS7_iEEEENS_9enable_ifIXsr17__is_same_uncvrefIT_SD_EE5valueERSC_E4typeERSF_, symObjAddr: 0x4A64, symBinAddr: 0x10000653C, symSize: 0x14 }
  - { offsetInCU: 0x171DD, offset: 0x171DD, size: 0x8, addend: 0x0, symName: __ZNSt3__16__treeINS_12__value_typeINS_12basic_stringIcNS_11char_traitsIcEENS_9allocatorIcEEEEiEENS_19__map_value_compareIS7_S8_NS_4lessIS7_EELb1EEENS5_IS8_EEE12__find_equalIS7_EERPNS_16__tree_node_baseIPvEERPNS_15__tree_end_nodeISJ_EERKT_, symObjAddr: 0x4A78, symBinAddr: 0x100006550, symSize: 0x184 }
  - { offsetInCU: 0x1724A, offset: 0x1724A, size: 0x8, addend: 0x0, symName: __ZNSt3__16__treeINS_12__value_typeINS_12basic_stringIcNS_11char_traitsIcEENS_9allocatorIcEEEEiEENS_19__map_value_compareIS7_S8_NS_4lessIS7_EELb1EEENS5_IS8_EEE16__construct_nodeIJNS_4pairIKS7_iEEEEENS_10unique_ptrINS_11__tree_nodeIS8_PvEENS_22__tree_node_destructorINS5_ISM_EEEEEEDpOT_, symObjAddr: 0x4BFC, symBinAddr: 0x1000066D4, symSize: 0x110 }
  - { offsetInCU: 0x172AB, offset: 0x172AB, size: 0x8, addend: 0x0, symName: __ZNSt3__16__treeINS_12__value_typeINS_12basic_stringIcNS_11char_traitsIcEENS_9allocatorIcEEEEiEENS_19__map_value_compareIS7_S8_NS_4lessIS7_EELb1EEENS5_IS8_EEE16__insert_node_atEPNS_15__tree_end_nodeIPNS_16__tree_node_baseIPvEEEERSJ_SJ_, symObjAddr: 0x4D0C, symBinAddr: 0x1000067E4, symSize: 0xCC }
  - { offsetInCU: 0x17300, offset: 0x17300, size: 0x8, addend: 0x0, symName: __ZNKSt3__110unique_ptrINS_11__tree_nodeINS_12__value_typeINS_12basic_stringIcNS_11char_traitsIcEENS_9allocatorIcEEEEiEEPvEENS_22__tree_node_destructorINS6_ISB_EEEEE3getB7v160006Ev, symObjAddr: 0x4DD8, symBinAddr: 0x1000068B0, symSize: 0x28 }
  - { offsetInCU: 0x17326, offset: 0x17326, size: 0x8, addend: 0x0, symName: __ZNSt3__110unique_ptrINS_11__tree_nodeINS_12__value_typeINS_12basic_stringIcNS_11char_traitsIcEENS_9allocatorIcEEEEiEEPvEENS_22__tree_node_destructorINS6_ISB_EEEEE7releaseB7v160006Ev, symObjAddr: 0x4E00, symBinAddr: 0x1000068D8, symSize: 0x44 }
  - { offsetInCU: 0x1735B, offset: 0x1735B, size: 0x8, addend: 0x0, symName: __ZNSt3__110unique_ptrINS_11__tree_nodeINS_12__value_typeINS_12basic_stringIcNS_11char_traitsIcEENS_9allocatorIcEEEEiEEPvEENS_22__tree_node_destructorINS6_ISB_EEEEED1B7v160006Ev, symObjAddr: 0x4E44, symBinAddr: 0x10000691C, symSize: 0x2C }
  - { offsetInCU: 0x17385, offset: 0x17385, size: 0x8, addend: 0x0, symName: __ZNSt3__115__tree_iteratorINS_12__value_typeINS_12basic_stringIcNS_11char_traitsIcEENS_9allocatorIcEEEEiEEPNS_11__tree_nodeIS8_PvEElEC1B7v160006ESC_, symObjAddr: 0x4E70, symBinAddr: 0x100006948, symSize: 0x34 }
  - { offsetInCU: 0x173C3, offset: 0x173C3, size: 0x8, addend: 0x0, symName: __ZNSt3__14pairINS_15__tree_iteratorINS_12__value_typeINS_12basic_stringIcNS_11char_traitsIcEENS_9allocatorIcEEEEiEEPNS_11__tree_nodeIS9_PvEElEEbEC1B7v160006ISE_RbLSB_0EEEOT_OT0_, symObjAddr: 0x4EA4, symBinAddr: 0x10000697C, symSize: 0x3C }
  - { offsetInCU: 0x17421, offset: 0x17421, size: 0x8, addend: 0x0, symName: __ZNKSt3__16__treeINS_12__value_typeINS_12basic_stringIcNS_11char_traitsIcEENS_9allocatorIcEEEEiEENS_19__map_value_compareIS7_S8_NS_4lessIS7_EELb1EEENS5_IS8_EEE10__root_ptrEv, symObjAddr: 0x4EE0, symBinAddr: 0x1000069B8, symSize: 0x24 }
  - { offsetInCU: 0x17447, offset: 0x17447, size: 0x8, addend: 0x0, symName: __ZNSt3__16__treeINS_12__value_typeINS_12basic_stringIcNS_11char_traitsIcEENS_9allocatorIcEEEEiEENS_19__map_value_compareIS7_S8_NS_4lessIS7_EELb1EEENS5_IS8_EEE10value_compB7v160006Ev, symObjAddr: 0x4F04, symBinAddr: 0x1000069DC, symSize: 0x28 }
  - { offsetInCU: 0x1746D, offset: 0x1746D, size: 0x8, addend: 0x0, symName: __ZNKSt3__119__map_value_compareINS_12basic_stringIcNS_11char_traitsIcEENS_9allocatorIcEEEENS_12__value_typeIS6_iEENS_4lessIS6_EELb1EEclB7v160006ERKS6_RKS8_, symObjAddr: 0x4F2C, symBinAddr: 0x100006A04, symSize: 0x50 }
  - { offsetInCU: 0x174B1, offset: 0x174B1, size: 0x8, addend: 0x0, symName: __ZNKSt3__119__map_value_compareINS_12basic_stringIcNS_11char_traitsIcEENS_9allocatorIcEEEENS_12__value_typeIS6_iEENS_4lessIS6_EELb1EEclB7v160006ERKS8_RKS6_, symObjAddr: 0x4F7C, symBinAddr: 0x100006A54, symSize: 0x48 }
  - { offsetInCU: 0x174F5, offset: 0x174F5, size: 0x8, addend: 0x0, symName: __ZNSt3__117__compressed_pairImNS_19__map_value_compareINS_12basic_stringIcNS_11char_traitsIcEENS_9allocatorIcEEEENS_12__value_typeIS7_iEENS_4lessIS7_EELb1EEEE6secondB7v160006Ev, symObjAddr: 0x4FC4, symBinAddr: 0x100006A9C, symSize: 0x24 }
  - { offsetInCU: 0x1751B, offset: 0x1751B, size: 0x8, addend: 0x0, symName: __ZNSt3__122__compressed_pair_elemINS_19__map_value_compareINS_12basic_stringIcNS_11char_traitsIcEENS_9allocatorIcEEEENS_12__value_typeIS7_iEENS_4lessIS7_EELb1EEELi1ELb1EE5__getB7v160006Ev, symObjAddr: 0x4FE8, symBinAddr: 0x100006AC0, symSize: 0x14 }
  - { offsetInCU: 0x17541, offset: 0x17541, size: 0x8, addend: 0x0, symName: __ZNKSt3__14lessINS_12basic_stringIcNS_11char_traitsIcEENS_9allocatorIcEEEEEclB7v160006ERKS6_S9_, symObjAddr: 0x4FFC, symBinAddr: 0x100006AD4, symSize: 0x34 }
  - { offsetInCU: 0x17585, offset: 0x17585, size: 0x8, addend: 0x0, symName: __ZNKSt3__112__value_typeINS_12basic_stringIcNS_11char_traitsIcEENS_9allocatorIcEEEEiE11__get_valueB7v160006Ev, symObjAddr: 0x5030, symBinAddr: 0x100006B08, symSize: 0x14 }
  - { offsetInCU: 0x175AB, offset: 0x175AB, size: 0x8, addend: 0x0, symName: __ZNKSt3__112basic_stringIcNS_11char_traitsIcEENS_9allocatorIcEEE7compareB7v160006ERKS5_, symObjAddr: 0x507C, symBinAddr: 0x100006B54, symSize: 0x4C }
  - { offsetInCU: 0x175E2, offset: 0x175E2, size: 0x8, addend: 0x0, symName: __ZNKSt3__112basic_stringIcNS_11char_traitsIcEENS_9allocatorIcEEE7compareINS_17basic_string_viewIcS2_EEEENS_9enable_ifIXsr33__can_be_converted_to_string_viewIcS2_T_EE5valueEiE4typeERKSA_, symObjAddr: 0x50C8, symBinAddr: 0x100006BA0, symSize: 0x12C }
  - { offsetInCU: 0x1765F, offset: 0x1765F, size: 0x8, addend: 0x0, symName: __ZNKSt3__112basic_stringIcNS_11char_traitsIcEENS_9allocatorIcEEEcvNS_17basic_string_viewIcS2_EEB7v160006Ev, symObjAddr: 0x51F4, symBinAddr: 0x100006CCC, symSize: 0x50 }
  - { offsetInCU: 0x17685, offset: 0x17685, size: 0x8, addend: 0x0, symName: __ZNKSt3__112basic_stringIcNS_11char_traitsIcEENS_9allocatorIcEEE4sizeB7v160006Ev, symObjAddr: 0x5244, symBinAddr: 0x100006D1C, symSize: 0x54 }
  - { offsetInCU: 0x176AB, offset: 0x176AB, size: 0x8, addend: 0x0, symName: __ZNKSt3__117basic_string_viewIcNS_11char_traitsIcEEE4sizeB7v160006Ev, symObjAddr: 0x5298, symBinAddr: 0x100006D70, symSize: 0x18 }
  - { offsetInCU: 0x176D1, offset: 0x176D1, size: 0x8, addend: 0x0, symName: __ZNSt3__111char_traitsIcE7compareEPKcS3_m, symObjAddr: 0x52B0, symBinAddr: 0x100006D88, symSize: 0x6C }
  - { offsetInCU: 0x17710, offset: 0x17710, size: 0x8, addend: 0x0, symName: __ZNKSt3__112basic_stringIcNS_11char_traitsIcEENS_9allocatorIcEEE4dataB7v160006Ev, symObjAddr: 0x531C, symBinAddr: 0x100006DF4, symSize: 0x28 }
  - { offsetInCU: 0x17736, offset: 0x17736, size: 0x8, addend: 0x0, symName: __ZNKSt3__117basic_string_viewIcNS_11char_traitsIcEEE4dataB7v160006Ev, symObjAddr: 0x5344, symBinAddr: 0x100006E1C, symSize: 0x18 }
  - { offsetInCU: 0x1775C, offset: 0x1775C, size: 0x8, addend: 0x0, symName: __ZNKSt3__112basic_stringIcNS_11char_traitsIcEENS_9allocatorIcEEE15__get_long_sizeB7v160006Ev, symObjAddr: 0x535C, symBinAddr: 0x100006E34, symSize: 0x28 }
  - { offsetInCU: 0x17782, offset: 0x17782, size: 0x8, addend: 0x0, symName: __ZNKSt3__112basic_stringIcNS_11char_traitsIcEENS_9allocatorIcEEE16__get_short_sizeB7v160006Ev, symObjAddr: 0x5384, symBinAddr: 0x100006E5C, symSize: 0x34 }
  - { offsetInCU: 0x177A8, offset: 0x177A8, size: 0x8, addend: 0x0, symName: __ZNKSt3__112basic_stringIcNS_11char_traitsIcEENS_9allocatorIcEEE13__get_pointerB7v160006Ev, symObjAddr: 0x5400, symBinAddr: 0x100006ED8, symSize: 0x54 }
  - { offsetInCU: 0x177CE, offset: 0x177CE, size: 0x8, addend: 0x0, symName: __ZNKSt3__112basic_stringIcNS_11char_traitsIcEENS_9allocatorIcEEE18__get_long_pointerB7v160006Ev, symObjAddr: 0x5454, symBinAddr: 0x100006F2C, symSize: 0x28 }
  - { offsetInCU: 0x177F4, offset: 0x177F4, size: 0x8, addend: 0x0, symName: __ZNKSt3__112basic_stringIcNS_11char_traitsIcEENS_9allocatorIcEEE19__get_short_pointerB7v160006Ev, symObjAddr: 0x547C, symBinAddr: 0x100006F54, symSize: 0x28 }
  - { offsetInCU: 0x1781A, offset: 0x1781A, size: 0x8, addend: 0x0, symName: __ZNSt3__114pointer_traitsIPKcE10pointer_toB7v160006ERS1_, symObjAddr: 0x54A4, symBinAddr: 0x100006F7C, symSize: 0x14 }
  - { offsetInCU: 0x1783D, offset: 0x1783D, size: 0x8, addend: 0x0, symName: __ZNSt3__117basic_string_viewIcNS_11char_traitsIcEEEC1B7v160006EPKcm, symObjAddr: 0x54B8, symBinAddr: 0x100006F90, symSize: 0x3C }
  - { offsetInCU: 0x17885, offset: 0x17885, size: 0x8, addend: 0x0, symName: __ZNSt3__117basic_string_viewIcNS_11char_traitsIcEEEC2B7v160006EPKcm, symObjAddr: 0x54F4, symBinAddr: 0x100006FCC, symSize: 0x50 }
  - { offsetInCU: 0x178CD, offset: 0x178CD, size: 0x8, addend: 0x0, symName: __ZNSt3__116allocator_traitsINS_9allocatorINS_11__tree_nodeINS_12__value_typeINS_12basic_stringIcNS_11char_traitsIcEENS1_IcEEEEiEEPvEEEEE8allocateB7v160006ERSC_m, symObjAddr: 0x5544, symBinAddr: 0x10000701C, symSize: 0x2C }
  - { offsetInCU: 0x17900, offset: 0x17900, size: 0x8, addend: 0x0, symName: __ZNSt3__122__tree_node_destructorINS_9allocatorINS_11__tree_nodeINS_12__value_typeINS_12basic_stringIcNS_11char_traitsIcEENS1_IcEEEEiEEPvEEEEEC1B7v160006ERSC_b, symObjAddr: 0x5570, symBinAddr: 0x100007048, symSize: 0x48 }
  - { offsetInCU: 0x1794D, offset: 0x1794D, size: 0x8, addend: 0x0, symName: __ZNSt3__110unique_ptrINS_11__tree_nodeINS_12__value_typeINS_12basic_stringIcNS_11char_traitsIcEENS_9allocatorIcEEEEiEEPvEENS_22__tree_node_destructorINS6_ISB_EEEEEC1B7v160006ILb1EvEEPSB_NS_16__dependent_typeINS_27__unique_ptr_deleter_sfinaeISE_EEXT_EE20__good_rval_ref_typeE, symObjAddr: 0x55B8, symBinAddr: 0x100007090, symSize: 0x3C }
  - { offsetInCU: 0x1799E, offset: 0x1799E, size: 0x8, addend: 0x0, symName: __ZNSt3__116allocator_traitsINS_9allocatorINS_11__tree_nodeINS_12__value_typeINS_12basic_stringIcNS_11char_traitsIcEENS1_IcEEEEiEEPvEEEEE9constructB7v160006INS_4pairIKS8_iEEJSH_EvEEvRSC_PT_DpOT0_, symObjAddr: 0x55F4, symBinAddr: 0x1000070CC, symSize: 0x34 }
  - { offsetInCU: 0x179F5, offset: 0x179F5, size: 0x8, addend: 0x0, symName: __ZNKSt3__110unique_ptrINS_11__tree_nodeINS_12__value_typeINS_12basic_stringIcNS_11char_traitsIcEENS_9allocatorIcEEEEiEEPvEENS_22__tree_node_destructorINS6_ISB_EEEEEptB7v160006Ev, symObjAddr: 0x5628, symBinAddr: 0x100007100, symSize: 0x28 }
  - { offsetInCU: 0x17A1B, offset: 0x17A1B, size: 0x8, addend: 0x0, symName: __ZNSt3__110unique_ptrINS_11__tree_nodeINS_12__value_typeINS_12basic_stringIcNS_11char_traitsIcEENS_9allocatorIcEEEEiEEPvEENS_22__tree_node_destructorINS6_ISB_EEEEE11get_deleterB7v160006Ev, symObjAddr: 0x5650, symBinAddr: 0x100007128, symSize: 0x24 }
  - { offsetInCU: 0x17A41, offset: 0x17A41, size: 0x8, addend: 0x0, symName: __ZNSt3__19allocatorINS_11__tree_nodeINS_12__value_typeINS_12basic_stringIcNS_11char_traitsIcEENS0_IcEEEEiEEPvEEE8allocateB7v160006Em, symObjAddr: 0x5674, symBinAddr: 0x10000714C, symSize: 0x58 }
  - { offsetInCU: 0x17A7F, offset: 0x17A7F, size: 0x8, addend: 0x0, symName: __ZNSt3__116allocator_traitsINS_9allocatorINS_11__tree_nodeINS_12__value_typeINS_12basic_stringIcNS_11char_traitsIcEENS1_IcEEEEiEEPvEEEEE8max_sizeB7v160006ISC_vEEmRKSC_, symObjAddr: 0x56CC, symBinAddr: 0x1000071A4, symSize: 0x24 }
  - { offsetInCU: 0x17AAD, offset: 0x17AAD, size: 0x8, addend: 0x0, symName: __ZNKSt3__19allocatorINS_11__tree_nodeINS_12__value_typeINS_12basic_stringIcNS_11char_traitsIcEENS0_IcEEEEiEEPvEEE8max_sizeB7v160006Ev, symObjAddr: 0x56F0, symBinAddr: 0x1000071C8, symSize: 0x14 }
  - { offsetInCU: 0x17AD3, offset: 0x17AD3, size: 0x8, addend: 0x0, symName: __ZNSt3__122__tree_node_destructorINS_9allocatorINS_11__tree_nodeINS_12__value_typeINS_12basic_stringIcNS_11char_traitsIcEENS1_IcEEEEiEEPvEEEEEC2B7v160006ERSC_b, symObjAddr: 0x5704, symBinAddr: 0x1000071DC, symSize: 0x38 }
  - { offsetInCU: 0x17B1B, offset: 0x17B1B, size: 0x8, addend: 0x0, symName: __ZNSt3__110unique_ptrINS_11__tree_nodeINS_12__value_typeINS_12basic_stringIcNS_11char_traitsIcEENS_9allocatorIcEEEEiEEPvEENS_22__tree_node_destructorINS6_ISB_EEEEEC2B7v160006ILb1EvEEPSB_NS_16__dependent_typeINS_27__unique_ptr_deleter_sfinaeISE_EEXT_EE20__good_rval_ref_typeE, symObjAddr: 0x573C, symBinAddr: 0x100007214, symSize: 0x48 }
  - { offsetInCU: 0x17B6C, offset: 0x17B6C, size: 0x8, addend: 0x0, symName: __ZNSt3__117__compressed_pairIPNS_11__tree_nodeINS_12__value_typeINS_12basic_stringIcNS_11char_traitsIcEENS_9allocatorIcEEEEiEEPvEENS_22__tree_node_destructorINS6_ISB_EEEEEC1B7v160006IRSC_SF_EEOT_OT0_, symObjAddr: 0x5784, symBinAddr: 0x10000725C, symSize: 0x3C }
  - { offsetInCU: 0x17BC4, offset: 0x17BC4, size: 0x8, addend: 0x0, symName: __ZNSt3__117__compressed_pairIPNS_11__tree_nodeINS_12__value_typeINS_12basic_stringIcNS_11char_traitsIcEENS_9allocatorIcEEEEiEEPvEENS_22__tree_node_destructorINS6_ISB_EEEEEC2B7v160006IRSC_SF_EEOT_OT0_, symObjAddr: 0x57C0, symBinAddr: 0x100007298, symSize: 0x48 }
  - { offsetInCU: 0x17C1C, offset: 0x17C1C, size: 0x8, addend: 0x0, symName: __ZNSt3__122__compressed_pair_elemIPNS_11__tree_nodeINS_12__value_typeINS_12basic_stringIcNS_11char_traitsIcEENS_9allocatorIcEEEEiEEPvEELi0ELb0EEC2B7v160006IRSC_vEEOT_, symObjAddr: 0x5808, symBinAddr: 0x1000072E0, symSize: 0x24 }
  - { offsetInCU: 0x17C5E, offset: 0x17C5E, size: 0x8, addend: 0x0, symName: __ZNSt3__122__compressed_pair_elemINS_22__tree_node_destructorINS_9allocatorINS_11__tree_nodeINS_12__value_typeINS_12basic_stringIcNS_11char_traitsIcEENS2_IcEEEEiEEPvEEEEEELi1ELb0EEC2B7v160006ISE_vEEOT_, symObjAddr: 0x582C, symBinAddr: 0x100007304, symSize: 0x24 }
  - { offsetInCU: 0x17CA0, offset: 0x17CA0, size: 0x8, addend: 0x0, symName: __ZNSt3__19allocatorINS_11__tree_nodeINS_12__value_typeINS_12basic_stringIcNS_11char_traitsIcEENS0_IcEEEEiEEPvEEE9constructB7v160006INS_4pairIKS7_iEEJSF_EEEvPT_DpOT0_, symObjAddr: 0x5850, symBinAddr: 0x100007328, symSize: 0x30 }
  - { offsetInCU: 0x17CF6, offset: 0x17CF6, size: 0x8, addend: 0x0, symName: __ZNSt3__14pairIKNS_12basic_stringIcNS_11char_traitsIcEENS_9allocatorIcEEEEiEC1EOS8_, symObjAddr: 0x5880, symBinAddr: 0x100007358, symSize: 0x34 }
  - { offsetInCU: 0x17D2B, offset: 0x17D2B, size: 0x8, addend: 0x0, symName: __ZNSt3__14pairIKNS_12basic_stringIcNS_11char_traitsIcEENS_9allocatorIcEEEEiEC2EOS8_, symObjAddr: 0x58B4, symBinAddr: 0x10000738C, symSize: 0x40 }
  - { offsetInCU: 0x17D60, offset: 0x17D60, size: 0x8, addend: 0x0, symName: __ZNKSt3__117__compressed_pairIPNS_11__tree_nodeINS_12__value_typeINS_12basic_stringIcNS_11char_traitsIcEENS_9allocatorIcEEEEiEEPvEENS_22__tree_node_destructorINS6_ISB_EEEEE5firstB7v160006Ev, symObjAddr: 0x58F4, symBinAddr: 0x1000073CC, symSize: 0x24 }
  - { offsetInCU: 0x17D86, offset: 0x17D86, size: 0x8, addend: 0x0, symName: __ZNKSt3__122__compressed_pair_elemIPNS_11__tree_nodeINS_12__value_typeINS_12basic_stringIcNS_11char_traitsIcEENS_9allocatorIcEEEEiEEPvEELi0ELb0EE5__getB7v160006Ev, symObjAddr: 0x5918, symBinAddr: 0x1000073F0, symSize: 0x14 }
  - { offsetInCU: 0x17DAC, offset: 0x17DAC, size: 0x8, addend: 0x0, symName: __ZNSt3__117__compressed_pairIPNS_11__tree_nodeINS_12__value_typeINS_12basic_stringIcNS_11char_traitsIcEENS_9allocatorIcEEEEiEEPvEENS_22__tree_node_destructorINS6_ISB_EEEEE6secondB7v160006Ev, symObjAddr: 0x592C, symBinAddr: 0x100007404, symSize: 0x28 }
  - { offsetInCU: 0x17DD2, offset: 0x17DD2, size: 0x8, addend: 0x0, symName: __ZNSt3__122__compressed_pair_elemINS_22__tree_node_destructorINS_9allocatorINS_11__tree_nodeINS_12__value_typeINS_12basic_stringIcNS_11char_traitsIcEENS2_IcEEEEiEEPvEEEEEELi1ELb0EE5__getB7v160006Ev, symObjAddr: 0x5954, symBinAddr: 0x10000742C, symSize: 0x14 }
  - { offsetInCU: 0x17DF8, offset: 0x17DF8, size: 0x8, addend: 0x0, symName: __ZNSt3__16__treeINS_12__value_typeINS_12basic_stringIcNS_11char_traitsIcEENS_9allocatorIcEEEEiEENS_19__map_value_compareIS7_S8_NS_4lessIS7_EELb1EEENS5_IS8_EEE4sizeB7v160006Ev, symObjAddr: 0x5C94, symBinAddr: 0x10000776C, symSize: 0x28 }
  - { offsetInCU: 0x17E1E, offset: 0x17E1E, size: 0x8, addend: 0x0, symName: __ZNKSt3__116__tree_node_baseIPvE15__parent_unsafeB7v160006Ev, symObjAddr: 0x5CBC, symBinAddr: 0x100007794, symSize: 0x18 }
  - { offsetInCU: 0x17E44, offset: 0x17E44, size: 0x8, addend: 0x0, symName: __ZNSt3__116__tree_node_baseIPvE12__set_parentB7v160006EPS2_, symObjAddr: 0x5EA4, symBinAddr: 0x10000797C, symSize: 0x20 }
  - { offsetInCU: 0x17E79, offset: 0x17E79, size: 0x8, addend: 0x0, symName: __ZNSt3__117__compressed_pairImNS_19__map_value_compareINS_12basic_stringIcNS_11char_traitsIcEENS_9allocatorIcEEEENS_12__value_typeIS7_iEENS_4lessIS7_EELb1EEEE5firstB7v160006Ev, symObjAddr: 0x5EC4, symBinAddr: 0x10000799C, symSize: 0x24 }
  - { offsetInCU: 0x17E9F, offset: 0x17E9F, size: 0x8, addend: 0x0, symName: __ZNSt3__122__compressed_pair_elemImLi0ELb0EE5__getB7v160006Ev, symObjAddr: 0x5EE8, symBinAddr: 0x1000079C0, symSize: 0x14 }
  - { offsetInCU: 0x17EC5, offset: 0x17EC5, size: 0x8, addend: 0x0, symName: __ZNSt3__117__compressed_pairIPNS_11__tree_nodeINS_12__value_typeINS_12basic_stringIcNS_11char_traitsIcEENS_9allocatorIcEEEEiEEPvEENS_22__tree_node_destructorINS6_ISB_EEEEE5firstB7v160006Ev, symObjAddr: 0x5EFC, symBinAddr: 0x1000079D4, symSize: 0x24 }
  - { offsetInCU: 0x17EEB, offset: 0x17EEB, size: 0x8, addend: 0x0, symName: __ZNSt3__122__compressed_pair_elemIPNS_11__tree_nodeINS_12__value_typeINS_12basic_stringIcNS_11char_traitsIcEENS_9allocatorIcEEEEiEEPvEELi0ELb0EE5__getB7v160006Ev, symObjAddr: 0x5F20, symBinAddr: 0x1000079F8, symSize: 0x14 }
  - { offsetInCU: 0x17F11, offset: 0x17F11, size: 0x8, addend: 0x0, symName: __ZNSt3__110unique_ptrINS_11__tree_nodeINS_12__value_typeINS_12basic_stringIcNS_11char_traitsIcEENS_9allocatorIcEEEEiEEPvEENS_22__tree_node_destructorINS6_ISB_EEEEED2B7v160006Ev, symObjAddr: 0x5F34, symBinAddr: 0x100007A0C, symSize: 0x30 }
  - { offsetInCU: 0x17F3B, offset: 0x17F3B, size: 0x8, addend: 0x0, symName: __ZNSt3__110unique_ptrINS_11__tree_nodeINS_12__value_typeINS_12basic_stringIcNS_11char_traitsIcEENS_9allocatorIcEEEEiEEPvEENS_22__tree_node_destructorINS6_ISB_EEEEE5resetB7v160006EPSB_, symObjAddr: 0x5F64, symBinAddr: 0x100007A3C, symSize: 0x78 }
  - { offsetInCU: 0x17F7F, offset: 0x17F7F, size: 0x8, addend: 0x0, symName: __ZNSt3__122__tree_node_destructorINS_9allocatorINS_11__tree_nodeINS_12__value_typeINS_12basic_stringIcNS_11char_traitsIcEENS1_IcEEEEiEEPvEEEEEclB7v160006EPSB_, symObjAddr: 0x5FDC, symBinAddr: 0x100007AB4, symSize: 0x94 }
  - { offsetInCU: 0x17FB4, offset: 0x17FB4, size: 0x8, addend: 0x0, symName: __ZNSt3__115__tree_iteratorINS_12__value_typeINS_12basic_stringIcNS_11char_traitsIcEENS_9allocatorIcEEEEiEEPNS_11__tree_nodeIS8_PvEElEC2B7v160006ESC_, symObjAddr: 0x6070, symBinAddr: 0x100007B48, symSize: 0x20 }
  - { offsetInCU: 0x17FED, offset: 0x17FED, size: 0x8, addend: 0x0, symName: __ZNSt3__14pairINS_15__tree_iteratorINS_12__value_typeINS_12basic_stringIcNS_11char_traitsIcEENS_9allocatorIcEEEEiEEPNS_11__tree_nodeIS9_PvEElEEbEC2B7v160006ISE_RbLSB_0EEEOT_OT0_, symObjAddr: 0x6090, symBinAddr: 0x100007B68, symSize: 0x38 }
  - { offsetInCU: 0x1804B, offset: 0x1804B, size: 0x8, addend: 0x0, symName: __ZNSt3__14pairINS_14__map_iteratorINS_15__tree_iteratorINS_12__value_typeINS_12basic_stringIcNS_11char_traitsIcEENS_9allocatorIcEEEEiEEPNS_11__tree_nodeISA_PvEElEEEEbEC2B7v160006ISF_bLSC_0EEEONS0_IT_T0_EE, symObjAddr: 0x60C8, symBinAddr: 0x100007BA0, symSize: 0x50 }
  - { offsetInCU: 0x1809C, offset: 0x1809C, size: 0x8, addend: 0x0, symName: __ZNSt3__114__map_iteratorINS_15__tree_iteratorINS_12__value_typeINS_12basic_stringIcNS_11char_traitsIcEENS_9allocatorIcEEEEiEEPNS_11__tree_nodeIS9_PvEElEEEC1B7v160006ESE_, symObjAddr: 0x6118, symBinAddr: 0x100007BF0, symSize: 0x34 }
  - { offsetInCU: 0x180D5, offset: 0x180D5, size: 0x8, addend: 0x0, symName: __ZNSt3__114__map_iteratorINS_15__tree_iteratorINS_12__value_typeINS_12basic_stringIcNS_11char_traitsIcEENS_9allocatorIcEEEEiEEPNS_11__tree_nodeIS9_PvEElEEEC2B7v160006ESE_, symObjAddr: 0x614C, symBinAddr: 0x100007C24, symSize: 0x20 }
  - { offsetInCU: 0x1810E, offset: 0x1810E, size: 0x8, addend: 0x0, symName: __ZNSt3__16__treeINS_12__value_typeIdNS_4pairINS_12basic_stringIcNS_11char_traitsIcEENS_9allocatorIcEEEENS_6vectorIS8_NS6_IS8_EEEEEEEENS_19__map_value_compareIdSD_NS_4lessIdEELb1EEENS6_ISD_EEE15__insert_uniqueB7v160006EONS2_IKdSC_EE, symObjAddr: 0x616C, symBinAddr: 0x100007C44, symSize: 0x50 }
  - { offsetInCU: 0x18143, offset: 0x18143, size: 0x8, addend: 0x0, symName: __ZNSt3__14pairINS_14__map_iteratorINS_15__tree_iteratorINS_12__value_typeIdNS0_INS_12basic_stringIcNS_11char_traitsIcEENS_9allocatorIcEEEENS_6vectorIS9_NS7_IS9_EEEEEEEEPNS_11__tree_nodeISE_PvEElEEEEbEC1B7v160006ISJ_bLSG_0EEEONS0_IT_T0_EE, symObjAddr: 0x61BC, symBinAddr: 0x100007C94, symSize: 0x34 }
  - { offsetInCU: 0x18194, offset: 0x18194, size: 0x8, addend: 0x0, symName: __ZNSt3__16__treeINS_12__value_typeIdNS_4pairINS_12basic_stringIcNS_11char_traitsIcEENS_9allocatorIcEEEENS_6vectorIS8_NS6_IS8_EEEEEEEENS_19__map_value_compareIdSD_NS_4lessIdEELb1EEENS6_ISD_EEE25__emplace_unique_key_argsIdJNS2_IKdSC_EEEEENS2_INS_15__tree_iteratorISD_PNS_11__tree_nodeISD_PvEElEEbEERKT_DpOT0_, symObjAddr: 0x61F0, symBinAddr: 0x100007CC8, symSize: 0xF0 }
  - { offsetInCU: 0x18240, offset: 0x18240, size: 0x8, addend: 0x0, symName: __ZNSt3__122__tree_key_value_typesINS_12__value_typeIdNS_4pairINS_12basic_stringIcNS_11char_traitsIcEENS_9allocatorIcEEEENS_6vectorIS8_NS6_IS8_EEEEEEEEE9__get_keyB7v160006INS2_IKdSC_EEEENS_9enable_ifIXsr17__is_same_uncvrefIT_SH_EE5valueERSG_E4typeERSJ_, symObjAddr: 0x62E0, symBinAddr: 0x100007DB8, symSize: 0x14 }
  - { offsetInCU: 0x1826D, offset: 0x1826D, size: 0x8, addend: 0x0, symName: __ZNSt3__16__treeINS_12__value_typeIdNS_4pairINS_12basic_stringIcNS_11char_traitsIcEENS_9allocatorIcEEEENS_6vectorIS8_NS6_IS8_EEEEEEEENS_19__map_value_compareIdSD_NS_4lessIdEELb1EEENS6_ISD_EEE12__find_equalIdEERPNS_16__tree_node_baseIPvEERPNS_15__tree_end_nodeISO_EERKT_, symObjAddr: 0x62F4, symBinAddr: 0x100007DCC, symSize: 0x184 }
  - { offsetInCU: 0x182DA, offset: 0x182DA, size: 0x8, addend: 0x0, symName: __ZNSt3__16__treeINS_12__value_typeIdNS_4pairINS_12basic_stringIcNS_11char_traitsIcEENS_9allocatorIcEEEENS_6vectorIS8_NS6_IS8_EEEEEEEENS_19__map_value_compareIdSD_NS_4lessIdEELb1EEENS6_ISD_EEE16__construct_nodeIJNS2_IKdSC_EEEEENS_10unique_ptrINS_11__tree_nodeISD_PvEENS_22__tree_node_destructorINS6_ISQ_EEEEEEDpOT_, symObjAddr: 0x6478, symBinAddr: 0x100007F50, symSize: 0x110 }
  - { offsetInCU: 0x1833B, offset: 0x1833B, size: 0x8, addend: 0x0, symName: __ZNSt3__16__treeINS_12__value_typeIdNS_4pairINS_12basic_stringIcNS_11char_traitsIcEENS_9allocatorIcEEEENS_6vectorIS8_NS6_IS8_EEEEEEEENS_19__map_value_compareIdSD_NS_4lessIdEELb1EEENS6_ISD_EEE16__insert_node_atEPNS_15__tree_end_nodeIPNS_16__tree_node_baseIPvEEEERSO_SO_, symObjAddr: 0x6588, symBinAddr: 0x100008060, symSize: 0xCC }
  - { offsetInCU: 0x18390, offset: 0x18390, size: 0x8, addend: 0x0, symName: __ZNKSt3__110unique_ptrINS_11__tree_nodeINS_12__value_typeIdNS_4pairINS_12basic_stringIcNS_11char_traitsIcEENS_9allocatorIcEEEENS_6vectorIS9_NS7_IS9_EEEEEEEEPvEENS_22__tree_node_destructorINS7_ISG_EEEEE3getB7v160006Ev, symObjAddr: 0x6654, symBinAddr: 0x10000812C, symSize: 0x28 }
  - { offsetInCU: 0x183B6, offset: 0x183B6, size: 0x8, addend: 0x0, symName: __ZNSt3__110unique_ptrINS_11__tree_nodeINS_12__value_typeIdNS_4pairINS_12basic_stringIcNS_11char_traitsIcEENS_9allocatorIcEEEENS_6vectorIS9_NS7_IS9_EEEEEEEEPvEENS_22__tree_node_destructorINS7_ISG_EEEEE7releaseB7v160006Ev, symObjAddr: 0x667C, symBinAddr: 0x100008154, symSize: 0x44 }
  - { offsetInCU: 0x183EB, offset: 0x183EB, size: 0x8, addend: 0x0, symName: __ZNSt3__110unique_ptrINS_11__tree_nodeINS_12__value_typeIdNS_4pairINS_12basic_stringIcNS_11char_traitsIcEENS_9allocatorIcEEEENS_6vectorIS9_NS7_IS9_EEEEEEEEPvEENS_22__tree_node_destructorINS7_ISG_EEEEED1B7v160006Ev, symObjAddr: 0x66C0, symBinAddr: 0x100008198, symSize: 0x2C }
  - { offsetInCU: 0x18415, offset: 0x18415, size: 0x8, addend: 0x0, symName: __ZNSt3__115__tree_iteratorINS_12__value_typeIdNS_4pairINS_12basic_stringIcNS_11char_traitsIcEENS_9allocatorIcEEEENS_6vectorIS8_NS6_IS8_EEEEEEEEPNS_11__tree_nodeISD_PvEElEC1B7v160006ESH_, symObjAddr: 0x66EC, symBinAddr: 0x1000081C4, symSize: 0x34 }
  - { offsetInCU: 0x18453, offset: 0x18453, size: 0x8, addend: 0x0, symName: __ZNSt3__14pairINS_15__tree_iteratorINS_12__value_typeIdNS0_INS_12basic_stringIcNS_11char_traitsIcEENS_9allocatorIcEEEENS_6vectorIS8_NS6_IS8_EEEEEEEEPNS_11__tree_nodeISD_PvEElEEbEC1B7v160006ISI_RbLSF_0EEEOT_OT0_, symObjAddr: 0x6720, symBinAddr: 0x1000081F8, symSize: 0x3C }
  - { offsetInCU: 0x184B1, offset: 0x184B1, size: 0x8, addend: 0x0, symName: __ZNKSt3__16__treeINS_12__value_typeIdNS_4pairINS_12basic_stringIcNS_11char_traitsIcEENS_9allocatorIcEEEENS_6vectorIS8_NS6_IS8_EEEEEEEENS_19__map_value_compareIdSD_NS_4lessIdEELb1EEENS6_ISD_EEE10__root_ptrEv, symObjAddr: 0x675C, symBinAddr: 0x100008234, symSize: 0x24 }
  - { offsetInCU: 0x184D7, offset: 0x184D7, size: 0x8, addend: 0x0, symName: __ZNSt3__16__treeINS_12__value_typeIdNS_4pairINS_12basic_stringIcNS_11char_traitsIcEENS_9allocatorIcEEEENS_6vectorIS8_NS6_IS8_EEEEEEEENS_19__map_value_compareIdSD_NS_4lessIdEELb1EEENS6_ISD_EEE10value_compB7v160006Ev, symObjAddr: 0x6780, symBinAddr: 0x100008258, symSize: 0x28 }
  - { offsetInCU: 0x184FD, offset: 0x184FD, size: 0x8, addend: 0x0, symName: __ZNKSt3__119__map_value_compareIdNS_12__value_typeIdNS_4pairINS_12basic_stringIcNS_11char_traitsIcEENS_9allocatorIcEEEENS_6vectorIS8_NS6_IS8_EEEEEEEENS_4lessIdEELb1EEclB7v160006ERKdRKSD_, symObjAddr: 0x67A8, symBinAddr: 0x100008280, symSize: 0x50 }
  - { offsetInCU: 0x18541, offset: 0x18541, size: 0x8, addend: 0x0, symName: __ZNKSt3__119__map_value_compareIdNS_12__value_typeIdNS_4pairINS_12basic_stringIcNS_11char_traitsIcEENS_9allocatorIcEEEENS_6vectorIS8_NS6_IS8_EEEEEEEENS_4lessIdEELb1EEclB7v160006ERKSD_RKd, symObjAddr: 0x67F8, symBinAddr: 0x1000082D0, symSize: 0x48 }
  - { offsetInCU: 0x18585, offset: 0x18585, size: 0x8, addend: 0x0, symName: __ZNSt3__117__compressed_pairImNS_19__map_value_compareIdNS_12__value_typeIdNS_4pairINS_12basic_stringIcNS_11char_traitsIcEENS_9allocatorIcEEEENS_6vectorIS9_NS7_IS9_EEEEEEEENS_4lessIdEELb1EEEE6secondB7v160006Ev, symObjAddr: 0x6840, symBinAddr: 0x100008318, symSize: 0x24 }
  - { offsetInCU: 0x185AB, offset: 0x185AB, size: 0x8, addend: 0x0, symName: __ZNSt3__122__compressed_pair_elemINS_19__map_value_compareIdNS_12__value_typeIdNS_4pairINS_12basic_stringIcNS_11char_traitsIcEENS_9allocatorIcEEEENS_6vectorIS9_NS7_IS9_EEEEEEEENS_4lessIdEELb1EEELi1ELb1EE5__getB7v160006Ev, symObjAddr: 0x6864, symBinAddr: 0x10000833C, symSize: 0x14 }
  - { offsetInCU: 0x185D1, offset: 0x185D1, size: 0x8, addend: 0x0, symName: __ZNKSt3__14lessIdEclB7v160006ERKdS3_, symObjAddr: 0x6878, symBinAddr: 0x100008350, symSize: 0x34 }
  - { offsetInCU: 0x18615, offset: 0x18615, size: 0x8, addend: 0x0, symName: __ZNKSt3__112__value_typeIdNS_4pairINS_12basic_stringIcNS_11char_traitsIcEENS_9allocatorIcEEEENS_6vectorIS7_NS5_IS7_EEEEEEE11__get_valueB7v160006Ev, symObjAddr: 0x68AC, symBinAddr: 0x100008384, symSize: 0x14 }
  - { offsetInCU: 0x1863B, offset: 0x1863B, size: 0x8, addend: 0x0, symName: __ZNSt3__116allocator_traitsINS_9allocatorINS_11__tree_nodeINS_12__value_typeIdNS_4pairINS_12basic_stringIcNS_11char_traitsIcEENS1_IcEEEENS_6vectorIS9_NS1_IS9_EEEEEEEEPvEEEEE8allocateB7v160006ERSH_m, symObjAddr: 0x68C0, symBinAddr: 0x100008398, symSize: 0x2C }
  - { offsetInCU: 0x1866E, offset: 0x1866E, size: 0x8, addend: 0x0, symName: __ZNSt3__122__tree_node_destructorINS_9allocatorINS_11__tree_nodeINS_12__value_typeIdNS_4pairINS_12basic_stringIcNS_11char_traitsIcEENS1_IcEEEENS_6vectorIS9_NS1_IS9_EEEEEEEEPvEEEEEC1B7v160006ERSH_b, symObjAddr: 0x68EC, symBinAddr: 0x1000083C4, symSize: 0x48 }
  - { offsetInCU: 0x186BB, offset: 0x186BB, size: 0x8, addend: 0x0, symName: __ZNSt3__110unique_ptrINS_11__tree_nodeINS_12__value_typeIdNS_4pairINS_12basic_stringIcNS_11char_traitsIcEENS_9allocatorIcEEEENS_6vectorIS9_NS7_IS9_EEEEEEEEPvEENS_22__tree_node_destructorINS7_ISG_EEEEEC1B7v160006ILb1EvEEPSG_NS_16__dependent_typeINS_27__unique_ptr_deleter_sfinaeISJ_EEXT_EE20__good_rval_ref_typeE, symObjAddr: 0x6934, symBinAddr: 0x10000840C, symSize: 0x3C }
  - { offsetInCU: 0x1870C, offset: 0x1870C, size: 0x8, addend: 0x0, symName: __ZNSt3__116allocator_traitsINS_9allocatorINS_11__tree_nodeINS_12__value_typeIdNS_4pairINS_12basic_stringIcNS_11char_traitsIcEENS1_IcEEEENS_6vectorIS9_NS1_IS9_EEEEEEEEPvEEEEE9constructB7v160006INS4_IKdSD_EEJSL_EvEEvRSH_PT_DpOT0_, symObjAddr: 0x6970, symBinAddr: 0x100008448, symSize: 0x34 }
  - { offsetInCU: 0x18763, offset: 0x18763, size: 0x8, addend: 0x0, symName: __ZNKSt3__110unique_ptrINS_11__tree_nodeINS_12__value_typeIdNS_4pairINS_12basic_stringIcNS_11char_traitsIcEENS_9allocatorIcEEEENS_6vectorIS9_NS7_IS9_EEEEEEEEPvEENS_22__tree_node_destructorINS7_ISG_EEEEEptB7v160006Ev, symObjAddr: 0x69A4, symBinAddr: 0x10000847C, symSize: 0x28 }
  - { offsetInCU: 0x18789, offset: 0x18789, size: 0x8, addend: 0x0, symName: __ZNSt3__110unique_ptrINS_11__tree_nodeINS_12__value_typeIdNS_4pairINS_12basic_stringIcNS_11char_traitsIcEENS_9allocatorIcEEEENS_6vectorIS9_NS7_IS9_EEEEEEEEPvEENS_22__tree_node_destructorINS7_ISG_EEEEE11get_deleterB7v160006Ev, symObjAddr: 0x69CC, symBinAddr: 0x1000084A4, symSize: 0x24 }
  - { offsetInCU: 0x187AF, offset: 0x187AF, size: 0x8, addend: 0x0, symName: __ZNSt3__19allocatorINS_11__tree_nodeINS_12__value_typeIdNS_4pairINS_12basic_stringIcNS_11char_traitsIcEENS0_IcEEEENS_6vectorIS8_NS0_IS8_EEEEEEEEPvEEE8allocateB7v160006Em, symObjAddr: 0x69F0, symBinAddr: 0x1000084C8, symSize: 0x5C }
  - { offsetInCU: 0x187ED, offset: 0x187ED, size: 0x8, addend: 0x0, symName: __ZNSt3__116allocator_traitsINS_9allocatorINS_11__tree_nodeINS_12__value_typeIdNS_4pairINS_12basic_stringIcNS_11char_traitsIcEENS1_IcEEEENS_6vectorIS9_NS1_IS9_EEEEEEEEPvEEEEE8max_sizeB7v160006ISH_vEEmRKSH_, symObjAddr: 0x6A4C, symBinAddr: 0x100008524, symSize: 0x24 }
  - { offsetInCU: 0x1881B, offset: 0x1881B, size: 0x8, addend: 0x0, symName: __ZNKSt3__19allocatorINS_11__tree_nodeINS_12__value_typeIdNS_4pairINS_12basic_stringIcNS_11char_traitsIcEENS0_IcEEEENS_6vectorIS8_NS0_IS8_EEEEEEEEPvEEE8max_sizeB7v160006Ev, symObjAddr: 0x6A70, symBinAddr: 0x100008548, symSize: 0x20 }
  - { offsetInCU: 0x18841, offset: 0x18841, size: 0x8, addend: 0x0, symName: __ZNSt3__122__tree_node_destructorINS_9allocatorINS_11__tree_nodeINS_12__value_typeIdNS_4pairINS_12basic_stringIcNS_11char_traitsIcEENS1_IcEEEENS_6vectorIS9_NS1_IS9_EEEEEEEEPvEEEEEC2B7v160006ERSH_b, symObjAddr: 0x6A90, symBinAddr: 0x100008568, symSize: 0x38 }
  - { offsetInCU: 0x18889, offset: 0x18889, size: 0x8, addend: 0x0, symName: __ZNSt3__110unique_ptrINS_11__tree_nodeINS_12__value_typeIdNS_4pairINS_12basic_stringIcNS_11char_traitsIcEENS_9allocatorIcEEEENS_6vectorIS9_NS7_IS9_EEEEEEEEPvEENS_22__tree_node_destructorINS7_ISG_EEEEEC2B7v160006ILb1EvEEPSG_NS_16__dependent_typeINS_27__unique_ptr_deleter_sfinaeISJ_EEXT_EE20__good_rval_ref_typeE, symObjAddr: 0x6AC8, symBinAddr: 0x1000085A0, symSize: 0x48 }
  - { offsetInCU: 0x188DA, offset: 0x188DA, size: 0x8, addend: 0x0, symName: __ZNSt3__117__compressed_pairIPNS_11__tree_nodeINS_12__value_typeIdNS_4pairINS_12basic_stringIcNS_11char_traitsIcEENS_9allocatorIcEEEENS_6vectorIS9_NS7_IS9_EEEEEEEEPvEENS_22__tree_node_destructorINS7_ISG_EEEEEC1B7v160006IRSH_SK_EEOT_OT0_, symObjAddr: 0x6B10, symBinAddr: 0x1000085E8, symSize: 0x3C }
  - { offsetInCU: 0x18932, offset: 0x18932, size: 0x8, addend: 0x0, symName: __ZNSt3__117__compressed_pairIPNS_11__tree_nodeINS_12__value_typeIdNS_4pairINS_12basic_stringIcNS_11char_traitsIcEENS_9allocatorIcEEEENS_6vectorIS9_NS7_IS9_EEEEEEEEPvEENS_22__tree_node_destructorINS7_ISG_EEEEEC2B7v160006IRSH_SK_EEOT_OT0_, symObjAddr: 0x6B4C, symBinAddr: 0x100008624, symSize: 0x48 }
  - { offsetInCU: 0x1898A, offset: 0x1898A, size: 0x8, addend: 0x0, symName: __ZNSt3__122__compressed_pair_elemIPNS_11__tree_nodeINS_12__value_typeIdNS_4pairINS_12basic_stringIcNS_11char_traitsIcEENS_9allocatorIcEEEENS_6vectorIS9_NS7_IS9_EEEEEEEEPvEELi0ELb0EEC2B7v160006IRSH_vEEOT_, symObjAddr: 0x6B94, symBinAddr: 0x10000866C, symSize: 0x24 }
  - { offsetInCU: 0x189CC, offset: 0x189CC, size: 0x8, addend: 0x0, symName: __ZNSt3__122__compressed_pair_elemINS_22__tree_node_destructorINS_9allocatorINS_11__tree_nodeINS_12__value_typeIdNS_4pairINS_12basic_stringIcNS_11char_traitsIcEENS2_IcEEEENS_6vectorISA_NS2_ISA_EEEEEEEEPvEEEEEELi1ELb0EEC2B7v160006ISJ_vEEOT_, symObjAddr: 0x6BB8, symBinAddr: 0x100008690, symSize: 0x24 }
  - { offsetInCU: 0x18A0E, offset: 0x18A0E, size: 0x8, addend: 0x0, symName: __ZNSt3__19allocatorINS_11__tree_nodeINS_12__value_typeIdNS_4pairINS_12basic_stringIcNS_11char_traitsIcEENS0_IcEEEENS_6vectorIS8_NS0_IS8_EEEEEEEEPvEEE9constructB7v160006INS3_IKdSC_EEJSJ_EEEvPT_DpOT0_, symObjAddr: 0x6BDC, symBinAddr: 0x1000086B4, symSize: 0x30 }
  - { offsetInCU: 0x18A64, offset: 0x18A64, size: 0x8, addend: 0x0, symName: __ZNSt3__14pairIKdNS0_INS_12basic_stringIcNS_11char_traitsIcEENS_9allocatorIcEEEENS_6vectorIS7_NS5_IS7_EEEEEEEC1EOSC_, symObjAddr: 0x6C0C, symBinAddr: 0x1000086E4, symSize: 0x34 }
  - { offsetInCU: 0x18A99, offset: 0x18A99, size: 0x8, addend: 0x0, symName: __ZNSt3__14pairIKdNS0_INS_12basic_stringIcNS_11char_traitsIcEENS_9allocatorIcEEEENS_6vectorIS7_NS5_IS7_EEEEEEEC2EOSC_, symObjAddr: 0x6C40, symBinAddr: 0x100008718, symSize: 0x48 }
  - { offsetInCU: 0x18ACE, offset: 0x18ACE, size: 0x8, addend: 0x0, symName: __ZNSt3__14pairINS_12basic_stringIcNS_11char_traitsIcEENS_9allocatorIcEEEENS_6vectorIS6_NS4_IS6_EEEEEC1EOSA_, symObjAddr: 0x6C88, symBinAddr: 0x100008760, symSize: 0x34 }
  - { offsetInCU: 0x18B03, offset: 0x18B03, size: 0x8, addend: 0x0, symName: __ZNSt3__14pairINS_12basic_stringIcNS_11char_traitsIcEENS_9allocatorIcEEEENS_6vectorIS6_NS4_IS6_EEEEEC2EOSA_, symObjAddr: 0x6CBC, symBinAddr: 0x100008794, symSize: 0x48 }
  - { offsetInCU: 0x18B38, offset: 0x18B38, size: 0x8, addend: 0x0, symName: __ZNSt3__112basic_stringIcNS_11char_traitsIcEENS_9allocatorIcEEEC1B7v160006EOS5_, symObjAddr: 0x6D04, symBinAddr: 0x1000087DC, symSize: 0x34 }
  - { offsetInCU: 0x18B71, offset: 0x18B71, size: 0x8, addend: 0x0, symName: __ZNSt3__16vectorINS_12basic_stringIcNS_11char_traitsIcEENS_9allocatorIcEEEENS4_IS6_EEEC1B7v160006EOS8_, symObjAddr: 0x6D38, symBinAddr: 0x100008810, symSize: 0x34 }
  - { offsetInCU: 0x18BAC, offset: 0x18BAC, size: 0x8, addend: 0x0, symName: __ZNSt3__112basic_stringIcNS_11char_traitsIcEENS_9allocatorIcEEEC2B7v160006EOS5_, symObjAddr: 0x6D6C, symBinAddr: 0x100008844, symSize: 0x80 }
  - { offsetInCU: 0x18BE5, offset: 0x18BE5, size: 0x8, addend: 0x0, symName: __ZNSt3__16vectorINS_12basic_stringIcNS_11char_traitsIcEENS_9allocatorIcEEEENS4_IS6_EEEC2B7v160006EOS8_, symObjAddr: 0x6E00, symBinAddr: 0x1000088D8, symSize: 0xDC }
  - { offsetInCU: 0x18C20, offset: 0x18C20, size: 0x8, addend: 0x0, symName: __ZNKSt3__117__compressed_pairIPNS_11__tree_nodeINS_12__value_typeIdNS_4pairINS_12basic_stringIcNS_11char_traitsIcEENS_9allocatorIcEEEENS_6vectorIS9_NS7_IS9_EEEEEEEEPvEENS_22__tree_node_destructorINS7_ISG_EEEEE5firstB7v160006Ev, symObjAddr: 0x6EF0, symBinAddr: 0x1000089C8, symSize: 0x24 }
  - { offsetInCU: 0x18C46, offset: 0x18C46, size: 0x8, addend: 0x0, symName: __ZNKSt3__122__compressed_pair_elemIPNS_11__tree_nodeINS_12__value_typeIdNS_4pairINS_12basic_stringIcNS_11char_traitsIcEENS_9allocatorIcEEEENS_6vectorIS9_NS7_IS9_EEEEEEEEPvEELi0ELb0EE5__getB7v160006Ev, symObjAddr: 0x6F14, symBinAddr: 0x1000089EC, symSize: 0x14 }
  - { offsetInCU: 0x18C6C, offset: 0x18C6C, size: 0x8, addend: 0x0, symName: __ZNSt3__117__compressed_pairIPNS_11__tree_nodeINS_12__value_typeIdNS_4pairINS_12basic_stringIcNS_11char_traitsIcEENS_9allocatorIcEEEENS_6vectorIS9_NS7_IS9_EEEEEEEEPvEENS_22__tree_node_destructorINS7_ISG_EEEEE6secondB7v160006Ev, symObjAddr: 0x6F28, symBinAddr: 0x100008A00, symSize: 0x28 }
  - { offsetInCU: 0x18C92, offset: 0x18C92, size: 0x8, addend: 0x0, symName: __ZNSt3__122__compressed_pair_elemINS_22__tree_node_destructorINS_9allocatorINS_11__tree_nodeINS_12__value_typeIdNS_4pairINS_12basic_stringIcNS_11char_traitsIcEENS2_IcEEEENS_6vectorISA_NS2_ISA_EEEEEEEEPvEEEEEELi1ELb0EE5__getB7v160006Ev, symObjAddr: 0x6F50, symBinAddr: 0x100008A28, symSize: 0x14 }
  - { offsetInCU: 0x18CB8, offset: 0x18CB8, size: 0x8, addend: 0x0, symName: __ZNSt3__16__treeINS_12__value_typeIdNS_4pairINS_12basic_stringIcNS_11char_traitsIcEENS_9allocatorIcEEEENS_6vectorIS8_NS6_IS8_EEEEEEEENS_19__map_value_compareIdSD_NS_4lessIdEELb1EEENS6_ISD_EEE4sizeB7v160006Ev, symObjAddr: 0x6F64, symBinAddr: 0x100008A3C, symSize: 0x28 }
  - { offsetInCU: 0x18CDE, offset: 0x18CDE, size: 0x8, addend: 0x0, symName: __ZNSt3__117__compressed_pairImNS_19__map_value_compareIdNS_12__value_typeIdNS_4pairINS_12basic_stringIcNS_11char_traitsIcEENS_9allocatorIcEEEENS_6vectorIS9_NS7_IS9_EEEEEEEENS_4lessIdEELb1EEEE5firstB7v160006Ev, symObjAddr: 0x6F8C, symBinAddr: 0x100008A64, symSize: 0x24 }
  - { offsetInCU: 0x18D04, offset: 0x18D04, size: 0x8, addend: 0x0, symName: __ZNSt3__117__compressed_pairIPNS_11__tree_nodeINS_12__value_typeIdNS_4pairINS_12basic_stringIcNS_11char_traitsIcEENS_9allocatorIcEEEENS_6vectorIS9_NS7_IS9_EEEEEEEEPvEENS_22__tree_node_destructorINS7_ISG_EEEEE5firstB7v160006Ev, symObjAddr: 0x6FB0, symBinAddr: 0x100008A88, symSize: 0x24 }
  - { offsetInCU: 0x18D2A, offset: 0x18D2A, size: 0x8, addend: 0x0, symName: __ZNSt3__122__compressed_pair_elemIPNS_11__tree_nodeINS_12__value_typeIdNS_4pairINS_12basic_stringIcNS_11char_traitsIcEENS_9allocatorIcEEEENS_6vectorIS9_NS7_IS9_EEEEEEEEPvEELi0ELb0EE5__getB7v160006Ev, symObjAddr: 0x6FD4, symBinAddr: 0x100008AAC, symSize: 0x14 }
  - { offsetInCU: 0x18D50, offset: 0x18D50, size: 0x8, addend: 0x0, symName: __ZNSt3__110unique_ptrINS_11__tree_nodeINS_12__value_typeIdNS_4pairINS_12basic_stringIcNS_11char_traitsIcEENS_9allocatorIcEEEENS_6vectorIS9_NS7_IS9_EEEEEEEEPvEENS_22__tree_node_destructorINS7_ISG_EEEEED2B7v160006Ev, symObjAddr: 0x6FE8, symBinAddr: 0x100008AC0, symSize: 0x30 }
  - { offsetInCU: 0x18D7A, offset: 0x18D7A, size: 0x8, addend: 0x0, symName: __ZNSt3__110unique_ptrINS_11__tree_nodeINS_12__value_typeIdNS_4pairINS_12basic_stringIcNS_11char_traitsIcEENS_9allocatorIcEEEENS_6vectorIS9_NS7_IS9_EEEEEEEEPvEENS_22__tree_node_destructorINS7_ISG_EEEEE5resetB7v160006EPSG_, symObjAddr: 0x7018, symBinAddr: 0x100008AF0, symSize: 0x78 }
  - { offsetInCU: 0x18DBE, offset: 0x18DBE, size: 0x8, addend: 0x0, symName: __ZNSt3__122__tree_node_destructorINS_9allocatorINS_11__tree_nodeINS_12__value_typeIdNS_4pairINS_12basic_stringIcNS_11char_traitsIcEENS1_IcEEEENS_6vectorIS9_NS1_IS9_EEEEEEEEPvEEEEEclB7v160006EPSG_, symObjAddr: 0x7090, symBinAddr: 0x100008B68, symSize: 0x94 }
  - { offsetInCU: 0x18DF3, offset: 0x18DF3, size: 0x8, addend: 0x0, symName: __ZNSt3__115__tree_iteratorINS_12__value_typeIdNS_4pairINS_12basic_stringIcNS_11char_traitsIcEENS_9allocatorIcEEEENS_6vectorIS8_NS6_IS8_EEEEEEEEPNS_11__tree_nodeISD_PvEElEC2B7v160006ESH_, symObjAddr: 0x7124, symBinAddr: 0x100008BFC, symSize: 0x20 }
  - { offsetInCU: 0x18E2C, offset: 0x18E2C, size: 0x8, addend: 0x0, symName: __ZNSt3__14pairINS_15__tree_iteratorINS_12__value_typeIdNS0_INS_12basic_stringIcNS_11char_traitsIcEENS_9allocatorIcEEEENS_6vectorIS8_NS6_IS8_EEEEEEEEPNS_11__tree_nodeISD_PvEElEEbEC2B7v160006ISI_RbLSF_0EEEOT_OT0_, symObjAddr: 0x7144, symBinAddr: 0x100008C1C, symSize: 0x38 }
  - { offsetInCU: 0x18E8A, offset: 0x18E8A, size: 0x8, addend: 0x0, symName: __ZNSt3__14pairINS_14__map_iteratorINS_15__tree_iteratorINS_12__value_typeIdNS0_INS_12basic_stringIcNS_11char_traitsIcEENS_9allocatorIcEEEENS_6vectorIS9_NS7_IS9_EEEEEEEEPNS_11__tree_nodeISE_PvEElEEEEbEC2B7v160006ISJ_bLSG_0EEEONS0_IT_T0_EE, symObjAddr: 0x717C, symBinAddr: 0x100008C54, symSize: 0x50 }
  - { offsetInCU: 0x18EDB, offset: 0x18EDB, size: 0x8, addend: 0x0, symName: __ZNSt3__114__map_iteratorINS_15__tree_iteratorINS_12__value_typeIdNS_4pairINS_12basic_stringIcNS_11char_traitsIcEENS_9allocatorIcEEEENS_6vectorIS9_NS7_IS9_EEEEEEEEPNS_11__tree_nodeISE_PvEElEEEC1B7v160006ESJ_, symObjAddr: 0x71CC, symBinAddr: 0x100008CA4, symSize: 0x34 }
  - { offsetInCU: 0x18F14, offset: 0x18F14, size: 0x8, addend: 0x0, symName: __ZNSt3__114__map_iteratorINS_15__tree_iteratorINS_12__value_typeIdNS_4pairINS_12basic_stringIcNS_11char_traitsIcEENS_9allocatorIcEEEENS_6vectorIS9_NS7_IS9_EEEEEEEEPNS_11__tree_nodeISE_PvEElEEEC2B7v160006ESJ_, symObjAddr: 0x7200, symBinAddr: 0x100008CD8, symSize: 0x20 }
  - { offsetInCU: 0x18F4D, offset: 0x18F4D, size: 0x8, addend: 0x0, symName: __ZNSt3__16vectorINS_12basic_stringIcNS_11char_traitsIcEENS_9allocatorIcEEEENS4_IS6_EEEC2B7v160006ESt16initializer_listIS6_E, symObjAddr: 0x7220, symBinAddr: 0x100008CF8, symSize: 0x128 }
  - { offsetInCU: 0x18F9D, offset: 0x18F9D, size: 0x8, addend: 0x0, symName: __ZNSt3__117__compressed_pairIPNS_12basic_stringIcNS_11char_traitsIcEENS_9allocatorIcEEEENS4_IS6_EEEC1B7v160006IDnNS_18__default_init_tagEEEOT_OT0_, symObjAddr: 0x7348, symBinAddr: 0x100008E20, symSize: 0x3C }
  - { offsetInCU: 0x18FF5, offset: 0x18FF5, size: 0x8, addend: 0x0, symName: __ZNKSt16initializer_listINSt3__112basic_stringIcNS0_11char_traitsIcEENS0_9allocatorIcEEEEE4sizeB7v160006Ev, symObjAddr: 0x7384, symBinAddr: 0x100008E5C, symSize: 0x18 }
  - { offsetInCU: 0x1901B, offset: 0x1901B, size: 0x8, addend: 0x0, symName: __ZNSt3__16vectorINS_12basic_stringIcNS_11char_traitsIcEENS_9allocatorIcEEEENS4_IS6_EEE18__construct_at_endIPKS6_Li0EEEvT_SC_m, symObjAddr: 0x739C, symBinAddr: 0x100008E74, symSize: 0x8C }
  - { offsetInCU: 0x1908E, offset: 0x1908E, size: 0x8, addend: 0x0, symName: __ZNKSt16initializer_listINSt3__112basic_stringIcNS0_11char_traitsIcEENS0_9allocatorIcEEEEE5beginB7v160006Ev, symObjAddr: 0x7428, symBinAddr: 0x100008F00, symSize: 0x18 }
  - { offsetInCU: 0x190B4, offset: 0x190B4, size: 0x8, addend: 0x0, symName: __ZNKSt16initializer_listINSt3__112basic_stringIcNS0_11char_traitsIcEENS0_9allocatorIcEEEEE3endB7v160006Ev, symObjAddr: 0x7440, symBinAddr: 0x100008F18, symSize: 0x28 }
  - { offsetInCU: 0x190DA, offset: 0x190DA, size: 0x8, addend: 0x0, symName: __ZNSt3__117__compressed_pairIPNS_12basic_stringIcNS_11char_traitsIcEENS_9allocatorIcEEEENS4_IS6_EEEC2B7v160006IDnNS_18__default_init_tagEEEOT_OT0_, symObjAddr: 0x7468, symBinAddr: 0x100008F40, symSize: 0x40 }
  - { offsetInCU: 0x19132, offset: 0x19132, size: 0x8, addend: 0x0, symName: __ZNSt3__122__compressed_pair_elemINS_9allocatorINS_12basic_stringIcNS_11char_traitsIcEENS1_IcEEEEEELi1ELb1EEC2B7v160006ENS_18__default_init_tagE, symObjAddr: 0x74A8, symBinAddr: 0x100008F80, symSize: 0x2C }
  - { offsetInCU: 0x19167, offset: 0x19167, size: 0x8, addend: 0x0, symName: __ZNSt3__19allocatorINS_12basic_stringIcNS_11char_traitsIcEENS0_IcEEEEEC2B7v160006Ev, symObjAddr: 0x74D4, symBinAddr: 0x100008FAC, symSize: 0x2C }
  - { offsetInCU: 0x19191, offset: 0x19191, size: 0x8, addend: 0x0, symName: __ZNSt3__116__non_trivial_ifILb1ENS_9allocatorINS_12basic_stringIcNS_11char_traitsIcEENS1_IcEEEEEEEC2B7v160006Ev, symObjAddr: 0x7500, symBinAddr: 0x100008FD8, symSize: 0x14 }
  - { offsetInCU: 0x191BB, offset: 0x191BB, size: 0x8, addend: 0x0, symName: __ZNSt3__116allocator_traitsINS_9allocatorINS_12basic_stringIcNS_11char_traitsIcEENS1_IcEEEEEEE9constructB7v160006IS6_JRKS6_EvEEvRS7_PT_DpOT0_, symObjAddr: 0x7608, symBinAddr: 0x1000090E0, symSize: 0x34 }
  - { offsetInCU: 0x19212, offset: 0x19212, size: 0x8, addend: 0x0, symName: __ZNSt3__19allocatorINS_12basic_stringIcNS_11char_traitsIcEENS0_IcEEEEE9constructB7v160006IS5_JRKS5_EEEvPT_DpOT0_, symObjAddr: 0x763C, symBinAddr: 0x100009114, symSize: 0x30 }
  - { offsetInCU: 0x19268, offset: 0x19268, size: 0x8, addend: 0x0, symName: __ZNSt3__16vectorINS_12basic_stringIcNS_11char_traitsIcEENS_9allocatorIcEEEENS4_IS6_EEED2B7v160006Ev, symObjAddr: 0x766C, symBinAddr: 0x100009144, symSize: 0x44 }
  - { offsetInCU: 0x19292, offset: 0x19292, size: 0x8, addend: 0x0, symName: __ZNSt3__16__treeINS_12__value_typeIdNS_4pairINS_12basic_stringIcNS_11char_traitsIcEENS_9allocatorIcEEEENS_6vectorIS8_NS6_IS8_EEEEEEEENS_19__map_value_compareIdSD_NS_4lessIdEELb1EEENS6_ISD_EEE5beginB7v160006Ev, symObjAddr: 0x76B0, symBinAddr: 0x100009188, symSize: 0x34 }
  - { offsetInCU: 0x192B8, offset: 0x192B8, size: 0x8, addend: 0x0, symName: __ZNSt3__115__tree_iteratorINS_12__value_typeIdNS_4pairINS_12basic_stringIcNS_11char_traitsIcEENS_9allocatorIcEEEENS_6vectorIS8_NS6_IS8_EEEEEEEEPNS_11__tree_nodeISD_PvEElEC1B7v160006EPNS_15__tree_end_nodeIPNS_16__tree_node_baseISF_EEEE, symObjAddr: 0x76E4, symBinAddr: 0x1000091BC, symSize: 0x34 }
  - { offsetInCU: 0x192F1, offset: 0x192F1, size: 0x8, addend: 0x0, symName: __ZNSt3__115__tree_iteratorINS_12__value_typeIdNS_4pairINS_12basic_stringIcNS_11char_traitsIcEENS_9allocatorIcEEEENS_6vectorIS8_NS6_IS8_EEEEEEEEPNS_11__tree_nodeISD_PvEElEC2B7v160006EPNS_15__tree_end_nodeIPNS_16__tree_node_baseISF_EEEE, symObjAddr: 0x7718, symBinAddr: 0x1000091F0, symSize: 0x20 }
  - { offsetInCU: 0x1932A, offset: 0x1932A, size: 0x8, addend: 0x0, symName: __ZNSt3__16__treeINS_12__value_typeIdNS_4pairINS_12basic_stringIcNS_11char_traitsIcEENS_9allocatorIcEEEENS_6vectorIS8_NS6_IS8_EEEEEEEENS_19__map_value_compareIdSD_NS_4lessIdEELb1EEENS6_ISD_EEE3endB7v160006Ev, symObjAddr: 0x7738, symBinAddr: 0x100009210, symSize: 0x34 }
  - { offsetInCU: 0x19350, offset: 0x19350, size: 0x8, addend: 0x0, symName: __ZNSt3__115__tree_iteratorINS_12__value_typeIdNS_4pairINS_12basic_stringIcNS_11char_traitsIcEENS_9allocatorIcEEEENS_6vectorIS8_NS6_IS8_EEEEEEEEPNS_11__tree_nodeISD_PvEElEppB7v160006Ev, symObjAddr: 0x77D0, symBinAddr: 0x1000092A8, symSize: 0x38 }
  - { offsetInCU: 0x19376, offset: 0x19376, size: 0x8, addend: 0x0, symName: __ZNKSt3__115__tree_iteratorINS_12__value_typeIdNS_4pairINS_12basic_stringIcNS_11char_traitsIcEENS_9allocatorIcEEEENS_6vectorIS8_NS6_IS8_EEEEEEEEPNS_11__tree_nodeISD_PvEElEptB7v160006Ev, symObjAddr: 0x78C8, symBinAddr: 0x1000093A0, symSize: 0x2C }
  - { offsetInCU: 0x1939C, offset: 0x1939C, size: 0x8, addend: 0x0, symName: __ZNSt3__114pointer_traitsIPNS_12__value_typeIdNS_4pairINS_12basic_stringIcNS_11char_traitsIcEENS_9allocatorIcEEEENS_6vectorIS8_NS6_IS8_EEEEEEEEE10pointer_toB7v160006ERSD_, symObjAddr: 0x78F4, symBinAddr: 0x1000093CC, symSize: 0x14 }
  - { offsetInCU: 0x193BF, offset: 0x193BF, size: 0x8, addend: 0x0, symName: __ZNKSt3__115__tree_iteratorINS_12__value_typeIdNS_4pairINS_12basic_stringIcNS_11char_traitsIcEENS_9allocatorIcEEEENS_6vectorIS8_NS6_IS8_EEEEEEEEPNS_11__tree_nodeISD_PvEElE8__get_npB7v160006Ev, symObjAddr: 0x7908, symBinAddr: 0x1000093E0, symSize: 0x18 }
  - { offsetInCU: 0x193E5, offset: 0x193E5, size: 0x8, addend: 0x0, symName: __ZNSt3__16vectorINS_12basic_stringIcNS_11char_traitsIcEENS_9allocatorIcEEEENS4_IS6_EEE11__make_iterB7v160006EPS6_, symObjAddr: 0x7920, symBinAddr: 0x1000093F8, symSize: 0x34 }
  - { offsetInCU: 0x1941A, offset: 0x1941A, size: 0x8, addend: 0x0, symName: __ZNSt3__111__wrap_iterIPNS_12basic_stringIcNS_11char_traitsIcEENS_9allocatorIcEEEEEC1B7v160006EPKvS7_, symObjAddr: 0x7954, symBinAddr: 0x10000942C, symSize: 0x3C }
  - { offsetInCU: 0x19460, offset: 0x19460, size: 0x8, addend: 0x0, symName: __ZNSt3__111__wrap_iterIPNS_12basic_stringIcNS_11char_traitsIcEENS_9allocatorIcEEEEEC2B7v160006EPKvS7_, symObjAddr: 0x7990, symBinAddr: 0x100009468, symSize: 0x24 }
  - { offsetInCU: 0x194BA, offset: 0x194BA, size: 0x8, addend: 0x0, symName: __ZNSt3__16__treeINS_12__value_typeINS_12basic_stringIcNS_11char_traitsIcEENS_9allocatorIcEEEEiEENS_19__map_value_compareIS7_S8_NS_4lessIS7_EELb1EEENS5_IS8_EEE25__emplace_unique_key_argsIS7_JRKNS_21piecewise_construct_tENS_5tupleIJRKS7_EEENSJ_IJEEEEEENS_4pairINS_15__tree_iteratorIS8_PNS_11__tree_nodeIS8_PvEElEEbEERKT_DpOT0_, symObjAddr: 0x79B4, symBinAddr: 0x10000948C, symSize: 0x100 }
  - { offsetInCU: 0x19590, offset: 0x19590, size: 0x8, addend: 0x0, symName: __ZNKSt3__115__tree_iteratorINS_12__value_typeINS_12basic_stringIcNS_11char_traitsIcEENS_9allocatorIcEEEEiEEPNS_11__tree_nodeIS8_PvEElEptB7v160006Ev, symObjAddr: 0x7AE4, symBinAddr: 0x1000095BC, symSize: 0x2C }
  - { offsetInCU: 0x195B6, offset: 0x195B6, size: 0x8, addend: 0x0, symName: __ZNSt3__16__treeINS_12__value_typeINS_12basic_stringIcNS_11char_traitsIcEENS_9allocatorIcEEEEiEENS_19__map_value_compareIS7_S8_NS_4lessIS7_EELb1EEENS5_IS8_EEE16__construct_nodeIJRKNS_21piecewise_construct_tENS_5tupleIJRKS7_EEENSJ_IJEEEEEENS_10unique_ptrINS_11__tree_nodeIS8_PvEENS_22__tree_node_destructorINS5_ISR_EEEEEEDpOT_, symObjAddr: 0x7B10, symBinAddr: 0x1000095E8, symSize: 0x120 }
  - { offsetInCU: 0x1963F, offset: 0x1963F, size: 0x8, addend: 0x0, symName: __ZNSt3__116allocator_traitsINS_9allocatorINS_11__tree_nodeINS_12__value_typeINS_12basic_stringIcNS_11char_traitsIcEENS1_IcEEEEiEEPvEEEEE9constructB7v160006INS_4pairIKS8_iEEJRKNS_21piecewise_construct_tENS_5tupleIJRSG_EEENSL_IJEEEEvEEvRSC_PT_DpOT0_, symObjAddr: 0x7C30, symBinAddr: 0x100009708, symSize: 0x44 }
  - { offsetInCU: 0x196BE, offset: 0x196BE, size: 0x8, addend: 0x0, symName: __ZNSt3__19allocatorINS_11__tree_nodeINS_12__value_typeINS_12basic_stringIcNS_11char_traitsIcEENS0_IcEEEEiEEPvEEE9constructB7v160006INS_4pairIKS7_iEEJRKNS_21piecewise_construct_tENS_5tupleIJRSE_EEENSJ_IJEEEEEEvPT_DpOT0_, symObjAddr: 0x7C74, symBinAddr: 0x10000974C, symSize: 0x44 }
  - { offsetInCU: 0x1973A, offset: 0x1973A, size: 0x8, addend: 0x0, symName: __ZNSt3__14pairIKNS_12basic_stringIcNS_11char_traitsIcEENS_9allocatorIcEEEEiEC1B7v160006IJRS7_EJEEENS_21piecewise_construct_tENS_5tupleIJDpT_EEENSC_IJDpT0_EEE, symObjAddr: 0x7CB8, symBinAddr: 0x100009790, symSize: 0x3C }
  - { offsetInCU: 0x197A1, offset: 0x197A1, size: 0x8, addend: 0x0, symName: __ZNSt3__14pairIKNS_12basic_stringIcNS_11char_traitsIcEENS_9allocatorIcEEEEiEC1B7v160006IJRS7_EJEJLm0EEJEEENS_21piecewise_construct_tERNS_5tupleIJDpT_EEERNSC_IJDpT0_EEENS_15__tuple_indicesIJXspT1_EEEENSL_IJXspT2_EEEE, symObjAddr: 0x7CF4, symBinAddr: 0x1000097CC, symSize: 0x3C }
  - { offsetInCU: 0x19831, offset: 0x19831, size: 0x8, addend: 0x0, symName: __ZNSt3__14pairIKNS_12basic_stringIcNS_11char_traitsIcEENS_9allocatorIcEEEEiEC2B7v160006IJRS7_EJEJLm0EEJEEENS_21piecewise_construct_tERNS_5tupleIJDpT_EEERNSC_IJDpT0_EEENS_15__tuple_indicesIJXspT1_EEEENSL_IJXspT2_EEEE, symObjAddr: 0x7D30, symBinAddr: 0x100009808, symSize: 0x48 }
  - { offsetInCU: 0x198C1, offset: 0x198C1, size: 0x8, addend: 0x0, symName: __ZNSt3__112__tuple_leafILm0ERKNS_12basic_stringIcNS_11char_traitsIcEENS_9allocatorIcEEEELb0EE3getB7v160006Ev, symObjAddr: 0x7D9C, symBinAddr: 0x100009874, symSize: 0x18 }
  - { offsetInCU: 0x198E7, offset: 0x198E7, size: 0x8, addend: 0x0, symName: __ZNSt3__15tupleIJRKNS_12basic_stringIcNS_11char_traitsIcEENS_9allocatorIcEEEEEEC1B7v160006INS_4_AndELi0EEES8_, symObjAddr: 0x7DB4, symBinAddr: 0x10000988C, symSize: 0x34 }
  - { offsetInCU: 0x1992F, offset: 0x1992F, size: 0x8, addend: 0x0, symName: __ZNSt3__15tupleIJRKNS_12basic_stringIcNS_11char_traitsIcEENS_9allocatorIcEEEEEEC2B7v160006INS_4_AndELi0EEES8_, symObjAddr: 0x7DE8, symBinAddr: 0x1000098C0, symSize: 0x34 }
  - { offsetInCU: 0x19977, offset: 0x19977, size: 0x8, addend: 0x0, symName: __ZNSt3__112__tuple_implINS_15__tuple_indicesIJLm0EEEEJRKNS_12basic_stringIcNS_11char_traitsIcEENS_9allocatorIcEEEEEEC1B7v160006IJLm0EEJSA_EJEJEJSA_EEENS1_IJXspT_EEEENS_13__tuple_typesIJDpT0_EEENS1_IJXspT1_EEEENSE_IJDpT2_EEEDpOT3_, symObjAddr: 0x7E1C, symBinAddr: 0x1000098F4, symSize: 0x34 }
  - { offsetInCU: 0x19A0C, offset: 0x19A0C, size: 0x8, addend: 0x0, symName: __ZNSt3__112__tuple_implINS_15__tuple_indicesIJLm0EEEEJRKNS_12basic_stringIcNS_11char_traitsIcEENS_9allocatorIcEEEEEEC2B7v160006IJLm0EEJSA_EJEJEJSA_EEENS1_IJXspT_EEEENS_13__tuple_typesIJDpT0_EEENS1_IJXspT1_EEEENSE_IJDpT2_EEEDpOT3_, symObjAddr: 0x7E50, symBinAddr: 0x100009928, symSize: 0x34 }
  - { offsetInCU: 0x19AA1, offset: 0x19AA1, size: 0x8, addend: 0x0, symName: __ZNSt3__112__tuple_leafILm0ERKNS_12basic_stringIcNS_11char_traitsIcEENS_9allocatorIcEEEELb0EEC2B7v160006IS8_vEEOT_, symObjAddr: 0x7E84, symBinAddr: 0x10000995C, symSize: 0x20 }
  - { offsetInCU: 0x19AE4, offset: 0x19AE4, size: 0x8, addend: 0x0, symName: __ZNSt3__114pointer_traitsIPNS_12__value_typeINS_12basic_stringIcNS_11char_traitsIcEENS_9allocatorIcEEEEiEEE10pointer_toB7v160006ERS8_, symObjAddr: 0x7EA4, symBinAddr: 0x10000997C, symSize: 0x14 }
  - { offsetInCU: 0x19B07, offset: 0x19B07, size: 0x8, addend: 0x0, symName: __ZNKSt3__115__tree_iteratorINS_12__value_typeINS_12basic_stringIcNS_11char_traitsIcEENS_9allocatorIcEEEEiEEPNS_11__tree_nodeIS8_PvEElE8__get_npB7v160006Ev, symObjAddr: 0x7EB8, symBinAddr: 0x100009990, symSize: 0x18 }
  - { offsetInCU: 0x19B2D, offset: 0x19B2D, size: 0x8, addend: 0x0, symName: __ZNSt3__16__treeINS_12__value_typeINS_12basic_stringIcNS_11char_traitsIcEENS_9allocatorIcEEEES7_EENS_19__map_value_compareIS7_S8_NS_4lessIS7_EELb1EEENS5_IS8_EEE15__insert_uniqueB7v160006EONS_4pairIKS7_S7_EE, symObjAddr: 0x7ED0, symBinAddr: 0x1000099A8, symSize: 0x50 }
  - { offsetInCU: 0x19B62, offset: 0x19B62, size: 0x8, addend: 0x0, symName: __ZNSt3__14pairINS_14__map_iteratorINS_15__tree_iteratorINS_12__value_typeINS_12basic_stringIcNS_11char_traitsIcEENS_9allocatorIcEEEES9_EEPNS_11__tree_nodeISA_PvEElEEEEbEC1B7v160006ISF_bLSC_0EEEONS0_IT_T0_EE, symObjAddr: 0x7F20, symBinAddr: 0x1000099F8, symSize: 0x34 }
  - { offsetInCU: 0x19BB3, offset: 0x19BB3, size: 0x8, addend: 0x0, symName: __ZNSt3__16__treeINS_12__value_typeINS_12basic_stringIcNS_11char_traitsIcEENS_9allocatorIcEEEES7_EENS_19__map_value_compareIS7_S8_NS_4lessIS7_EELb1EEENS5_IS8_EEE25__emplace_unique_key_argsIS7_JNS_4pairIKS7_S7_EEEEENSG_INS_15__tree_iteratorIS8_PNS_11__tree_nodeIS8_PvEElEEbEERKT_DpOT0_, symObjAddr: 0x7F54, symBinAddr: 0x100009A2C, symSize: 0xF0 }
  - { offsetInCU: 0x19C5F, offset: 0x19C5F, size: 0x8, addend: 0x0, symName: __ZNSt3__122__tree_key_value_typesINS_12__value_typeINS_12basic_stringIcNS_11char_traitsIcEENS_9allocatorIcEEEES7_EEE9__get_keyB7v160006INS_4pairIKS7_S7_EEEENS_9enable_ifIXsr17__is_same_uncvrefIT_SD_EE5valueERSC_E4typeERSF_, symObjAddr: 0x8044, symBinAddr: 0x100009B1C, symSize: 0x14 }
  - { offsetInCU: 0x19C8C, offset: 0x19C8C, size: 0x8, addend: 0x0, symName: __ZNSt3__16__treeINS_12__value_typeINS_12basic_stringIcNS_11char_traitsIcEENS_9allocatorIcEEEES7_EENS_19__map_value_compareIS7_S8_NS_4lessIS7_EELb1EEENS5_IS8_EEE12__find_equalIS7_EERPNS_16__tree_node_baseIPvEERPNS_15__tree_end_nodeISJ_EERKT_, symObjAddr: 0x8058, symBinAddr: 0x100009B30, symSize: 0x184 }
  - { offsetInCU: 0x19CF9, offset: 0x19CF9, size: 0x8, addend: 0x0, symName: __ZNSt3__16__treeINS_12__value_typeINS_12basic_stringIcNS_11char_traitsIcEENS_9allocatorIcEEEES7_EENS_19__map_value_compareIS7_S8_NS_4lessIS7_EELb1EEENS5_IS8_EEE16__construct_nodeIJNS_4pairIKS7_S7_EEEEENS_10unique_ptrINS_11__tree_nodeIS8_PvEENS_22__tree_node_destructorINS5_ISM_EEEEEEDpOT_, symObjAddr: 0x81DC, symBinAddr: 0x100009CB4, symSize: 0x110 }
  - { offsetInCU: 0x19D5A, offset: 0x19D5A, size: 0x8, addend: 0x0, symName: __ZNSt3__16__treeINS_12__value_typeINS_12basic_stringIcNS_11char_traitsIcEENS_9allocatorIcEEEES7_EENS_19__map_value_compareIS7_S8_NS_4lessIS7_EELb1EEENS5_IS8_EEE16__insert_node_atEPNS_15__tree_end_nodeIPNS_16__tree_node_baseIPvEEEERSJ_SJ_, symObjAddr: 0x82EC, symBinAddr: 0x100009DC4, symSize: 0xCC }
  - { offsetInCU: 0x19DAF, offset: 0x19DAF, size: 0x8, addend: 0x0, symName: __ZNKSt3__110unique_ptrINS_11__tree_nodeINS_12__value_typeINS_12basic_stringIcNS_11char_traitsIcEENS_9allocatorIcEEEES8_EEPvEENS_22__tree_node_destructorINS6_ISB_EEEEE3getB7v160006Ev, symObjAddr: 0x83B8, symBinAddr: 0x100009E90, symSize: 0x28 }
  - { offsetInCU: 0x19DD5, offset: 0x19DD5, size: 0x8, addend: 0x0, symName: __ZNSt3__110unique_ptrINS_11__tree_nodeINS_12__value_typeINS_12basic_stringIcNS_11char_traitsIcEENS_9allocatorIcEEEES8_EEPvEENS_22__tree_node_destructorINS6_ISB_EEEEE7releaseB7v160006Ev, symObjAddr: 0x83E0, symBinAddr: 0x100009EB8, symSize: 0x44 }
  - { offsetInCU: 0x19E0A, offset: 0x19E0A, size: 0x8, addend: 0x0, symName: __ZNSt3__110unique_ptrINS_11__tree_nodeINS_12__value_typeINS_12basic_stringIcNS_11char_traitsIcEENS_9allocatorIcEEEES8_EEPvEENS_22__tree_node_destructorINS6_ISB_EEEEED1B7v160006Ev, symObjAddr: 0x8424, symBinAddr: 0x100009EFC, symSize: 0x2C }
  - { offsetInCU: 0x19E34, offset: 0x19E34, size: 0x8, addend: 0x0, symName: __ZNSt3__115__tree_iteratorINS_12__value_typeINS_12basic_stringIcNS_11char_traitsIcEENS_9allocatorIcEEEES7_EEPNS_11__tree_nodeIS8_PvEElEC1B7v160006ESC_, symObjAddr: 0x8450, symBinAddr: 0x100009F28, symSize: 0x34 }
  - { offsetInCU: 0x19E72, offset: 0x19E72, size: 0x8, addend: 0x0, symName: __ZNSt3__14pairINS_15__tree_iteratorINS_12__value_typeINS_12basic_stringIcNS_11char_traitsIcEENS_9allocatorIcEEEES8_EEPNS_11__tree_nodeIS9_PvEElEEbEC1B7v160006ISE_RbLSB_0EEEOT_OT0_, symObjAddr: 0x8484, symBinAddr: 0x100009F5C, symSize: 0x3C }
  - { offsetInCU: 0x19ED0, offset: 0x19ED0, size: 0x8, addend: 0x0, symName: __ZNKSt3__16__treeINS_12__value_typeINS_12basic_stringIcNS_11char_traitsIcEENS_9allocatorIcEEEES7_EENS_19__map_value_compareIS7_S8_NS_4lessIS7_EELb1EEENS5_IS8_EEE10__root_ptrEv, symObjAddr: 0x84C0, symBinAddr: 0x100009F98, symSize: 0x24 }
  - { offsetInCU: 0x19EF6, offset: 0x19EF6, size: 0x8, addend: 0x0, symName: __ZNSt3__16__treeINS_12__value_typeINS_12basic_stringIcNS_11char_traitsIcEENS_9allocatorIcEEEES7_EENS_19__map_value_compareIS7_S8_NS_4lessIS7_EELb1EEENS5_IS8_EEE10value_compB7v160006Ev, symObjAddr: 0x84E4, symBinAddr: 0x100009FBC, symSize: 0x28 }
  - { offsetInCU: 0x19F1C, offset: 0x19F1C, size: 0x8, addend: 0x0, symName: __ZNKSt3__119__map_value_compareINS_12basic_stringIcNS_11char_traitsIcEENS_9allocatorIcEEEENS_12__value_typeIS6_S6_EENS_4lessIS6_EELb1EEclB7v160006ERKS6_RKS8_, symObjAddr: 0x850C, symBinAddr: 0x100009FE4, symSize: 0x50 }
  - { offsetInCU: 0x19F60, offset: 0x19F60, size: 0x8, addend: 0x0, symName: __ZNKSt3__119__map_value_compareINS_12basic_stringIcNS_11char_traitsIcEENS_9allocatorIcEEEENS_12__value_typeIS6_S6_EENS_4lessIS6_EELb1EEclB7v160006ERKS8_RKS6_, symObjAddr: 0x855C, symBinAddr: 0x10000A034, symSize: 0x48 }
  - { offsetInCU: 0x19FA4, offset: 0x19FA4, size: 0x8, addend: 0x0, symName: __ZNSt3__117__compressed_pairImNS_19__map_value_compareINS_12basic_stringIcNS_11char_traitsIcEENS_9allocatorIcEEEENS_12__value_typeIS7_S7_EENS_4lessIS7_EELb1EEEE6secondB7v160006Ev, symObjAddr: 0x85A4, symBinAddr: 0x10000A07C, symSize: 0x24 }
  - { offsetInCU: 0x19FCA, offset: 0x19FCA, size: 0x8, addend: 0x0, symName: __ZNSt3__122__compressed_pair_elemINS_19__map_value_compareINS_12basic_stringIcNS_11char_traitsIcEENS_9allocatorIcEEEENS_12__value_typeIS7_S7_EENS_4lessIS7_EELb1EEELi1ELb1EE5__getB7v160006Ev, symObjAddr: 0x85C8, symBinAddr: 0x10000A0A0, symSize: 0x14 }
  - { offsetInCU: 0x19FF0, offset: 0x19FF0, size: 0x8, addend: 0x0, symName: __ZNKSt3__112__value_typeINS_12basic_stringIcNS_11char_traitsIcEENS_9allocatorIcEEEES6_E11__get_valueB7v160006Ev, symObjAddr: 0x85DC, symBinAddr: 0x10000A0B4, symSize: 0x14 }
  - { offsetInCU: 0x1A016, offset: 0x1A016, size: 0x8, addend: 0x0, symName: __ZNSt3__116allocator_traitsINS_9allocatorINS_11__tree_nodeINS_12__value_typeINS_12basic_stringIcNS_11char_traitsIcEENS1_IcEEEES8_EEPvEEEEE8allocateB7v160006ERSC_m, symObjAddr: 0x85F0, symBinAddr: 0x10000A0C8, symSize: 0x2C }
  - { offsetInCU: 0x1A049, offset: 0x1A049, size: 0x8, addend: 0x0, symName: __ZNSt3__122__tree_node_destructorINS_9allocatorINS_11__tree_nodeINS_12__value_typeINS_12basic_stringIcNS_11char_traitsIcEENS1_IcEEEES8_EEPvEEEEEC1B7v160006ERSC_b, symObjAddr: 0x861C, symBinAddr: 0x10000A0F4, symSize: 0x48 }
  - { offsetInCU: 0x1A096, offset: 0x1A096, size: 0x8, addend: 0x0, symName: __ZNSt3__110unique_ptrINS_11__tree_nodeINS_12__value_typeINS_12basic_stringIcNS_11char_traitsIcEENS_9allocatorIcEEEES8_EEPvEENS_22__tree_node_destructorINS6_ISB_EEEEEC1B7v160006ILb1EvEEPSB_NS_16__dependent_typeINS_27__unique_ptr_deleter_sfinaeISE_EEXT_EE20__good_rval_ref_typeE, symObjAddr: 0x8664, symBinAddr: 0x10000A13C, symSize: 0x3C }
  - { offsetInCU: 0x1A0E7, offset: 0x1A0E7, size: 0x8, addend: 0x0, symName: __ZNSt3__116allocator_traitsINS_9allocatorINS_11__tree_nodeINS_12__value_typeINS_12basic_stringIcNS_11char_traitsIcEENS1_IcEEEES8_EEPvEEEEE9constructB7v160006INS_4pairIKS8_S8_EEJSH_EvEEvRSC_PT_DpOT0_, symObjAddr: 0x86A0, symBinAddr: 0x10000A178, symSize: 0x34 }
  - { offsetInCU: 0x1A13E, offset: 0x1A13E, size: 0x8, addend: 0x0, symName: __ZNKSt3__110unique_ptrINS_11__tree_nodeINS_12__value_typeINS_12basic_stringIcNS_11char_traitsIcEENS_9allocatorIcEEEES8_EEPvEENS_22__tree_node_destructorINS6_ISB_EEEEEptB7v160006Ev, symObjAddr: 0x86D4, symBinAddr: 0x10000A1AC, symSize: 0x28 }
  - { offsetInCU: 0x1A164, offset: 0x1A164, size: 0x8, addend: 0x0, symName: __ZNSt3__110unique_ptrINS_11__tree_nodeINS_12__value_typeINS_12basic_stringIcNS_11char_traitsIcEENS_9allocatorIcEEEES8_EEPvEENS_22__tree_node_destructorINS6_ISB_EEEEE11get_deleterB7v160006Ev, symObjAddr: 0x86FC, symBinAddr: 0x10000A1D4, symSize: 0x24 }
  - { offsetInCU: 0x1A18A, offset: 0x1A18A, size: 0x8, addend: 0x0, symName: __ZNSt3__19allocatorINS_11__tree_nodeINS_12__value_typeINS_12basic_stringIcNS_11char_traitsIcEENS0_IcEEEES7_EEPvEEE8allocateB7v160006Em, symObjAddr: 0x8720, symBinAddr: 0x10000A1F8, symSize: 0x5C }
  - { offsetInCU: 0x1A1C8, offset: 0x1A1C8, size: 0x8, addend: 0x0, symName: __ZNSt3__116allocator_traitsINS_9allocatorINS_11__tree_nodeINS_12__value_typeINS_12basic_stringIcNS_11char_traitsIcEENS1_IcEEEES8_EEPvEEEEE8max_sizeB7v160006ISC_vEEmRKSC_, symObjAddr: 0x877C, symBinAddr: 0x10000A254, symSize: 0x24 }
  - { offsetInCU: 0x1A1F6, offset: 0x1A1F6, size: 0x8, addend: 0x0, symName: __ZNKSt3__19allocatorINS_11__tree_nodeINS_12__value_typeINS_12basic_stringIcNS_11char_traitsIcEENS0_IcEEEES7_EEPvEEE8max_sizeB7v160006Ev, symObjAddr: 0x87A0, symBinAddr: 0x10000A278, symSize: 0x18 }
  - { offsetInCU: 0x1A21C, offset: 0x1A21C, size: 0x8, addend: 0x0, symName: __ZNSt3__122__tree_node_destructorINS_9allocatorINS_11__tree_nodeINS_12__value_typeINS_12basic_stringIcNS_11char_traitsIcEENS1_IcEEEES8_EEPvEEEEEC2B7v160006ERSC_b, symObjAddr: 0x87B8, symBinAddr: 0x10000A290, symSize: 0x38 }
  - { offsetInCU: 0x1A264, offset: 0x1A264, size: 0x8, addend: 0x0, symName: __ZNSt3__110unique_ptrINS_11__tree_nodeINS_12__value_typeINS_12basic_stringIcNS_11char_traitsIcEENS_9allocatorIcEEEES8_EEPvEENS_22__tree_node_destructorINS6_ISB_EEEEEC2B7v160006ILb1EvEEPSB_NS_16__dependent_typeINS_27__unique_ptr_deleter_sfinaeISE_EEXT_EE20__good_rval_ref_typeE, symObjAddr: 0x87F0, symBinAddr: 0x10000A2C8, symSize: 0x48 }
  - { offsetInCU: 0x1A2B5, offset: 0x1A2B5, size: 0x8, addend: 0x0, symName: __ZNSt3__117__compressed_pairIPNS_11__tree_nodeINS_12__value_typeINS_12basic_stringIcNS_11char_traitsIcEENS_9allocatorIcEEEES8_EEPvEENS_22__tree_node_destructorINS6_ISB_EEEEEC1B7v160006IRSC_SF_EEOT_OT0_, symObjAddr: 0x8838, symBinAddr: 0x10000A310, symSize: 0x3C }
  - { offsetInCU: 0x1A30D, offset: 0x1A30D, size: 0x8, addend: 0x0, symName: __ZNSt3__117__compressed_pairIPNS_11__tree_nodeINS_12__value_typeINS_12basic_stringIcNS_11char_traitsIcEENS_9allocatorIcEEEES8_EEPvEENS_22__tree_node_destructorINS6_ISB_EEEEEC2B7v160006IRSC_SF_EEOT_OT0_, symObjAddr: 0x8874, symBinAddr: 0x10000A34C, symSize: 0x48 }
  - { offsetInCU: 0x1A365, offset: 0x1A365, size: 0x8, addend: 0x0, symName: __ZNSt3__122__compressed_pair_elemIPNS_11__tree_nodeINS_12__value_typeINS_12basic_stringIcNS_11char_traitsIcEENS_9allocatorIcEEEES8_EEPvEELi0ELb0EEC2B7v160006IRSC_vEEOT_, symObjAddr: 0x88BC, symBinAddr: 0x10000A394, symSize: 0x24 }
  - { offsetInCU: 0x1A3A7, offset: 0x1A3A7, size: 0x8, addend: 0x0, symName: __ZNSt3__122__compressed_pair_elemINS_22__tree_node_destructorINS_9allocatorINS_11__tree_nodeINS_12__value_typeINS_12basic_stringIcNS_11char_traitsIcEENS2_IcEEEES9_EEPvEEEEEELi1ELb0EEC2B7v160006ISE_vEEOT_, symObjAddr: 0x88E0, symBinAddr: 0x10000A3B8, symSize: 0x24 }
  - { offsetInCU: 0x1A3E9, offset: 0x1A3E9, size: 0x8, addend: 0x0, symName: __ZNSt3__19allocatorINS_11__tree_nodeINS_12__value_typeINS_12basic_stringIcNS_11char_traitsIcEENS0_IcEEEES7_EEPvEEE9constructB7v160006INS_4pairIKS7_S7_EEJSF_EEEvPT_DpOT0_, symObjAddr: 0x8904, symBinAddr: 0x10000A3DC, symSize: 0x30 }
  - { offsetInCU: 0x1A43F, offset: 0x1A43F, size: 0x8, addend: 0x0, symName: __ZNSt3__14pairIKNS_12basic_stringIcNS_11char_traitsIcEENS_9allocatorIcEEEES6_EC1EOS8_, symObjAddr: 0x8934, symBinAddr: 0x10000A40C, symSize: 0x34 }
  - { offsetInCU: 0x1A474, offset: 0x1A474, size: 0x8, addend: 0x0, symName: __ZNSt3__14pairIKNS_12basic_stringIcNS_11char_traitsIcEENS_9allocatorIcEEEES6_EC2EOS8_, symObjAddr: 0x8968, symBinAddr: 0x10000A440, symSize: 0x48 }
  - { offsetInCU: 0x1A4A9, offset: 0x1A4A9, size: 0x8, addend: 0x0, symName: __ZNKSt3__117__compressed_pairIPNS_11__tree_nodeINS_12__value_typeINS_12basic_stringIcNS_11char_traitsIcEENS_9allocatorIcEEEES8_EEPvEENS_22__tree_node_destructorINS6_ISB_EEEEE5firstB7v160006Ev, symObjAddr: 0x89B0, symBinAddr: 0x10000A488, symSize: 0x24 }
  - { offsetInCU: 0x1A4CF, offset: 0x1A4CF, size: 0x8, addend: 0x0, symName: __ZNKSt3__122__compressed_pair_elemIPNS_11__tree_nodeINS_12__value_typeINS_12basic_stringIcNS_11char_traitsIcEENS_9allocatorIcEEEES8_EEPvEELi0ELb0EE5__getB7v160006Ev, symObjAddr: 0x89D4, symBinAddr: 0x10000A4AC, symSize: 0x14 }
  - { offsetInCU: 0x1A4F5, offset: 0x1A4F5, size: 0x8, addend: 0x0, symName: __ZNSt3__117__compressed_pairIPNS_11__tree_nodeINS_12__value_typeINS_12basic_stringIcNS_11char_traitsIcEENS_9allocatorIcEEEES8_EEPvEENS_22__tree_node_destructorINS6_ISB_EEEEE6secondB7v160006Ev, symObjAddr: 0x89E8, symBinAddr: 0x10000A4C0, symSize: 0x28 }
  - { offsetInCU: 0x1A51B, offset: 0x1A51B, size: 0x8, addend: 0x0, symName: __ZNSt3__122__compressed_pair_elemINS_22__tree_node_destructorINS_9allocatorINS_11__tree_nodeINS_12__value_typeINS_12basic_stringIcNS_11char_traitsIcEENS2_IcEEEES9_EEPvEEEEEELi1ELb0EE5__getB7v160006Ev, symObjAddr: 0x8A10, symBinAddr: 0x10000A4E8, symSize: 0x14 }
  - { offsetInCU: 0x1A541, offset: 0x1A541, size: 0x8, addend: 0x0, symName: __ZNSt3__16__treeINS_12__value_typeINS_12basic_stringIcNS_11char_traitsIcEENS_9allocatorIcEEEES7_EENS_19__map_value_compareIS7_S8_NS_4lessIS7_EELb1EEENS5_IS8_EEE4sizeB7v160006Ev, symObjAddr: 0x8A24, symBinAddr: 0x10000A4FC, symSize: 0x28 }
  - { offsetInCU: 0x1A567, offset: 0x1A567, size: 0x8, addend: 0x0, symName: __ZNSt3__117__compressed_pairImNS_19__map_value_compareINS_12basic_stringIcNS_11char_traitsIcEENS_9allocatorIcEEEENS_12__value_typeIS7_S7_EENS_4lessIS7_EELb1EEEE5firstB7v160006Ev, symObjAddr: 0x8A4C, symBinAddr: 0x10000A524, symSize: 0x24 }
  - { offsetInCU: 0x1A58D, offset: 0x1A58D, size: 0x8, addend: 0x0, symName: __ZNSt3__117__compressed_pairIPNS_11__tree_nodeINS_12__value_typeINS_12basic_stringIcNS_11char_traitsIcEENS_9allocatorIcEEEES8_EEPvEENS_22__tree_node_destructorINS6_ISB_EEEEE5firstB7v160006Ev, symObjAddr: 0x8A70, symBinAddr: 0x10000A548, symSize: 0x24 }
  - { offsetInCU: 0x1A5B3, offset: 0x1A5B3, size: 0x8, addend: 0x0, symName: __ZNSt3__122__compressed_pair_elemIPNS_11__tree_nodeINS_12__value_typeINS_12basic_stringIcNS_11char_traitsIcEENS_9allocatorIcEEEES8_EEPvEELi0ELb0EE5__getB7v160006Ev, symObjAddr: 0x8A94, symBinAddr: 0x10000A56C, symSize: 0x14 }
  - { offsetInCU: 0x1A5D9, offset: 0x1A5D9, size: 0x8, addend: 0x0, symName: __ZNSt3__110unique_ptrINS_11__tree_nodeINS_12__value_typeINS_12basic_stringIcNS_11char_traitsIcEENS_9allocatorIcEEEES8_EEPvEENS_22__tree_node_destructorINS6_ISB_EEEEED2B7v160006Ev, symObjAddr: 0x8AA8, symBinAddr: 0x10000A580, symSize: 0x30 }
  - { offsetInCU: 0x1A603, offset: 0x1A603, size: 0x8, addend: 0x0, symName: __ZNSt3__110unique_ptrINS_11__tree_nodeINS_12__value_typeINS_12basic_stringIcNS_11char_traitsIcEENS_9allocatorIcEEEES8_EEPvEENS_22__tree_node_destructorINS6_ISB_EEEEE5resetB7v160006EPSB_, symObjAddr: 0x8AD8, symBinAddr: 0x10000A5B0, symSize: 0x78 }
  - { offsetInCU: 0x1A647, offset: 0x1A647, size: 0x8, addend: 0x0, symName: __ZNSt3__122__tree_node_destructorINS_9allocatorINS_11__tree_nodeINS_12__value_typeINS_12basic_stringIcNS_11char_traitsIcEENS1_IcEEEES8_EEPvEEEEEclB7v160006EPSB_, symObjAddr: 0x8B50, symBinAddr: 0x10000A628, symSize: 0x94 }
  - { offsetInCU: 0x1A67C, offset: 0x1A67C, size: 0x8, addend: 0x0, symName: __ZNSt3__115__tree_iteratorINS_12__value_typeINS_12basic_stringIcNS_11char_traitsIcEENS_9allocatorIcEEEES7_EEPNS_11__tree_nodeIS8_PvEElEC2B7v160006ESC_, symObjAddr: 0x8BE4, symBinAddr: 0x10000A6BC, symSize: 0x20 }
  - { offsetInCU: 0x1A6B5, offset: 0x1A6B5, size: 0x8, addend: 0x0, symName: __ZNSt3__14pairINS_15__tree_iteratorINS_12__value_typeINS_12basic_stringIcNS_11char_traitsIcEENS_9allocatorIcEEEES8_EEPNS_11__tree_nodeIS9_PvEElEEbEC2B7v160006ISE_RbLSB_0EEEOT_OT0_, symObjAddr: 0x8C04, symBinAddr: 0x10000A6DC, symSize: 0x38 }
  - { offsetInCU: 0x1A713, offset: 0x1A713, size: 0x8, addend: 0x0, symName: __ZNSt3__14pairINS_14__map_iteratorINS_15__tree_iteratorINS_12__value_typeINS_12basic_stringIcNS_11char_traitsIcEENS_9allocatorIcEEEES9_EEPNS_11__tree_nodeISA_PvEElEEEEbEC2B7v160006ISF_bLSC_0EEEONS0_IT_T0_EE, symObjAddr: 0x8C3C, symBinAddr: 0x10000A714, symSize: 0x50 }
  - { offsetInCU: 0x1A764, offset: 0x1A764, size: 0x8, addend: 0x0, symName: __ZNSt3__114__map_iteratorINS_15__tree_iteratorINS_12__value_typeINS_12basic_stringIcNS_11char_traitsIcEENS_9allocatorIcEEEES8_EEPNS_11__tree_nodeIS9_PvEElEEEC1B7v160006ESE_, symObjAddr: 0x8C8C, symBinAddr: 0x10000A764, symSize: 0x34 }
  - { offsetInCU: 0x1A79D, offset: 0x1A79D, size: 0x8, addend: 0x0, symName: __ZNSt3__114__map_iteratorINS_15__tree_iteratorINS_12__value_typeINS_12basic_stringIcNS_11char_traitsIcEENS_9allocatorIcEEEES8_EEPNS_11__tree_nodeIS9_PvEElEEEC2B7v160006ESE_, symObjAddr: 0x8CC0, symBinAddr: 0x10000A798, symSize: 0x20 }
  - { offsetInCU: 0x1A7D6, offset: 0x1A7D6, size: 0x8, addend: 0x0, symName: __ZNSt3__16__treeINS_12__value_typeINS_12basic_stringIcNS_11char_traitsIcEENS_9allocatorIcEEEES7_EENS_19__map_value_compareIS7_S8_NS_4lessIS7_EELb1EEENS5_IS8_EEE5beginB7v160006Ev, symObjAddr: 0x8CE0, symBinAddr: 0x10000A7B8, symSize: 0x34 }
  - { offsetInCU: 0x1A7FC, offset: 0x1A7FC, size: 0x8, addend: 0x0, symName: __ZNSt3__115__tree_iteratorINS_12__value_typeINS_12basic_stringIcNS_11char_traitsIcEENS_9allocatorIcEEEES7_EEPNS_11__tree_nodeIS8_PvEElEC1B7v160006EPNS_15__tree_end_nodeIPNS_16__tree_node_baseISA_EEEE, symObjAddr: 0x8D14, symBinAddr: 0x10000A7EC, symSize: 0x34 }
  - { offsetInCU: 0x1A835, offset: 0x1A835, size: 0x8, addend: 0x0, symName: __ZNSt3__115__tree_iteratorINS_12__value_typeINS_12basic_stringIcNS_11char_traitsIcEENS_9allocatorIcEEEES7_EEPNS_11__tree_nodeIS8_PvEElEC2B7v160006EPNS_15__tree_end_nodeIPNS_16__tree_node_baseISA_EEEE, symObjAddr: 0x8D48, symBinAddr: 0x10000A820, symSize: 0x20 }
  - { offsetInCU: 0x1A86E, offset: 0x1A86E, size: 0x8, addend: 0x0, symName: __ZNSt3__16__treeINS_12__value_typeINS_12basic_stringIcNS_11char_traitsIcEENS_9allocatorIcEEEES7_EENS_19__map_value_compareIS7_S8_NS_4lessIS7_EELb1EEENS5_IS8_EEE3endB7v160006Ev, symObjAddr: 0x8D68, symBinAddr: 0x10000A840, symSize: 0x34 }
  - { offsetInCU: 0x1A894, offset: 0x1A894, size: 0x8, addend: 0x0, symName: __ZNSt3__115__tree_iteratorINS_12__value_typeINS_12basic_stringIcNS_11char_traitsIcEENS_9allocatorIcEEEES7_EEPNS_11__tree_nodeIS8_PvEElEppB7v160006Ev, symObjAddr: 0x8E00, symBinAddr: 0x10000A8D8, symSize: 0x38 }
  - { offsetInCU: 0x1A8BA, offset: 0x1A8BA, size: 0x8, addend: 0x0, symName: __ZNKSt3__115__tree_iteratorINS_12__value_typeINS_12basic_stringIcNS_11char_traitsIcEENS_9allocatorIcEEEES7_EEPNS_11__tree_nodeIS8_PvEElEptB7v160006Ev, symObjAddr: 0x8E38, symBinAddr: 0x10000A910, symSize: 0x2C }
  - { offsetInCU: 0x1A8E0, offset: 0x1A8E0, size: 0x8, addend: 0x0, symName: __ZNSt3__114pointer_traitsIPNS_12__value_typeINS_12basic_stringIcNS_11char_traitsIcEENS_9allocatorIcEEEES7_EEE10pointer_toB7v160006ERS8_, symObjAddr: 0x8E64, symBinAddr: 0x10000A93C, symSize: 0x14 }
  - { offsetInCU: 0x1A903, offset: 0x1A903, size: 0x8, addend: 0x0, symName: __ZNKSt3__115__tree_iteratorINS_12__value_typeINS_12basic_stringIcNS_11char_traitsIcEENS_9allocatorIcEEEES7_EEPNS_11__tree_nodeIS8_PvEElE8__get_npB7v160006Ev, symObjAddr: 0x8E78, symBinAddr: 0x10000A950, symSize: 0x18 }
  - { offsetInCU: 0x1A947, offset: 0x1A947, size: 0x8, addend: 0x0, symName: __ZNKSt3__113basic_ostreamIcNS_11char_traitsIcEEE6sentrycvbB7v160006Ev, symObjAddr: 0x907C, symBinAddr: 0x10000AB54, symSize: 0x1C }
  - { offsetInCU: 0x1A96D, offset: 0x1A96D, size: 0x8, addend: 0x0, symName: __ZNSt3__119ostreambuf_iteratorIcNS_11char_traitsIcEEEC1B7v160006ERNS_13basic_ostreamIcS2_EE, symObjAddr: 0x92D8, symBinAddr: 0x10000ADB0, symSize: 0x34 }
  - { offsetInCU: 0x1A9A5, offset: 0x1A9A5, size: 0x8, addend: 0x0, symName: __ZNKSt3__18ios_base5flagsB7v160006Ev, symObjAddr: 0x930C, symBinAddr: 0x10000ADE4, symSize: 0x18 }
  - { offsetInCU: 0x1A9CD, offset: 0x1A9CD, size: 0x8, addend: 0x0, symName: __ZNKSt3__19basic_iosIcNS_11char_traitsIcEEE4fillB7v160006Ev, symObjAddr: 0x9324, symBinAddr: 0x10000ADFC, symSize: 0x64 }
  - { offsetInCU: 0x1A9F5, offset: 0x1A9F5, size: 0x8, addend: 0x0, symName: __ZNKSt3__119ostreambuf_iteratorIcNS_11char_traitsIcEEE6failedB7v160006Ev, symObjAddr: 0x9388, symBinAddr: 0x10000AE60, symSize: 0x24 }
  - { offsetInCU: 0x1AA1B, offset: 0x1AA1B, size: 0x8, addend: 0x0, symName: __ZNSt3__115basic_streambufIcNS_11char_traitsIcEEE5sputnB7v160006EPKcl, symObjAddr: 0x93AC, symBinAddr: 0x10000AE84, symSize: 0x3C }
  - { offsetInCU: 0x1AA5D, offset: 0x1AA5D, size: 0x8, addend: 0x0, symName: __ZNSt3__112basic_stringIcNS_11char_traitsIcEENS_9allocatorIcEEEC1B7v160006Emc, symObjAddr: 0x93E8, symBinAddr: 0x10000AEC0, symSize: 0x3C }
  - { offsetInCU: 0x1AAA5, offset: 0x1AAA5, size: 0x8, addend: 0x0, symName: __ZNSt3__112basic_stringIcNS_11char_traitsIcEENS_9allocatorIcEEEC2B7v160006Emc, symObjAddr: 0x9424, symBinAddr: 0x10000AEFC, symSize: 0x54 }
  - { offsetInCU: 0x1AAED, offset: 0x1AAED, size: 0x8, addend: 0x0, symName: __ZNSt3__119ostreambuf_iteratorIcNS_11char_traitsIcEEEC2B7v160006ERNS_13basic_ostreamIcS2_EE, symObjAddr: 0x9478, symBinAddr: 0x10000AF50, symSize: 0x54 }
  - { offsetInCU: 0x1AB25, offset: 0x1AB25, size: 0x8, addend: 0x0, symName: __ZNKSt3__19basic_iosIcNS_11char_traitsIcEEE5widenB7v160006Ec, symObjAddr: 0x94CC, symBinAddr: 0x10000AFA4, symSize: 0x84 }
  - { offsetInCU: 0x1AB5C, offset: 0x1AB5C, size: 0x8, addend: 0x0, symName: __ZNKSt3__15ctypeIcE5widenB7v160006Ec, symObjAddr: 0x9550, symBinAddr: 0x10000B028, symSize: 0x38 }
  - { offsetInCU: 0x1AB91, offset: 0x1AB91, size: 0x8, addend: 0x0, symName: __ZNSt3__111char_traitsIcE6lengthEPKc, symObjAddr: 0x9588, symBinAddr: 0x10000B060, symSize: 0x34 }
...
